

Microchip MPLAB XC8 Assembler V2.41 build 20230208172133 
                                                                                               Tue Mar 26 13:20:08 2024

Microchip MPLAB XC8 C Compiler v2.41 (Free license) build 20230208172133 Og1 
     1                           	processor	18F26K22
     2                           	fnconf	rparam,??,?,0
     3                           	pagewidth 120
     4                           	opt	flic
     5                           	psect	idataBANK0,global,class=CODE,delta=1,noexec
     6                           	psect	mediumconst,global,reloc=2,class=MEDIUMCONST,delta=1,noexec
     7                           	psect	nvBANK0,global,class=BANK0,space=1,delta=1,lowdata,noexec
     8                           	psect	nvBANK1,global,class=BANK1,space=1,delta=1,lowdata,noexec
     9                           	psect	nvBANK2,global,class=BANK2,space=1,delta=1,lowdata,noexec
    10                           	psect	cinit,global,reloc=2,class=CODE,delta=1
    11                           	psect	bssCOMRAM,global,class=COMRAM,space=1,delta=1,lowdata,noexec
    12                           	psect	bssBANK0,global,class=BANK0,space=1,delta=1,lowdata,noexec
    13                           	psect	dataBANK0,global,class=BANK0,space=1,delta=1,lowdata,noexec
    14                           	psect	bssBANK2,global,class=BANK2,space=1,delta=1,lowdata,noexec
    15                           	psect	cstackBANK3,global,class=BANK3,space=1,delta=1,lowdata,noexec
    16                           	psect	cstackBANK1,global,class=BANK1,space=1,delta=1,lowdata,noexec
    17                           	psect	cstackBANK0,global,class=BANK0,space=1,delta=1,lowdata,noexec
    18                           	psect	cstackCOMRAM,global,class=COMRAM,space=1,delta=1,lowdata,noexec
    19                           	psect	text0,global,reloc=2,class=CODE,delta=1
    20                           	psect	text1,global,reloc=2,class=CODE,delta=1,group=3
    21                           	psect	text2,global,reloc=2,class=CODE,delta=1,group=1
    22                           	psect	text3,global,reloc=2,class=CODE,delta=1,group=1
    23                           	psect	text4,global,reloc=2,class=CODE,delta=1,group=1
    24                           	psect	text5,global,reloc=2,class=CODE,delta=1,group=1
    25                           	psect	text6,global,reloc=2,class=CODE,delta=1,group=1
    26                           	psect	text7,global,reloc=2,class=CODE,delta=1,group=3
    27                           	psect	text8,global,reloc=2,class=CODE,delta=1,group=3
    28                           	psect	text9,global,reloc=2,class=CODE,delta=1
    29                           	psect	text10,global,reloc=2,class=CODE,delta=1
    30                           	psect	text11,global,reloc=2,class=CODE,delta=1,group=3
    31                           	psect	text12,global,reloc=2,class=CODE,delta=1,group=2
    32                           	psect	text13,global,reloc=2,class=CODE,delta=1,group=2
    33                           	psect	text14,global,reloc=2,class=CODE,delta=1
    34                           	psect	text15,global,reloc=2,class=CODE,delta=1
    35                           	psect	text16,global,reloc=2,class=CODE,delta=1
    36                           	psect	text17,global,reloc=2,class=CODE,delta=1
    37                           	psect	text18,global,reloc=2,class=CODE,delta=1
    38                           	psect	text19,global,reloc=2,class=CODE,delta=1
    39                           	psect	text20,global,reloc=2,class=CODE,delta=1
    40                           	psect	text21,global,reloc=2,class=CODE,delta=1
    41                           	psect	text22,global,reloc=2,class=CODE,delta=1
    42                           	psect	text23,global,reloc=2,class=CODE,delta=1
    43                           	psect	text24,global,reloc=2,class=CODE,delta=1
    44                           	psect	text25,global,reloc=2,class=CODE,delta=1
    45                           	psect	text26,global,reloc=2,class=CODE,delta=1
    46                           	psect	text27,global,reloc=2,class=CODE,delta=1
    47                           	psect	text28,global,reloc=2,class=CODE,delta=1
    48                           	psect	text29,global,reloc=2,class=CODE,delta=1,group=2
    49                           	psect	text30,global,reloc=2,class=CODE,delta=1
    50                           	psect	text31,global,reloc=2,class=CODE,delta=1
    51                           	psect	text32,global,reloc=2,class=CODE,delta=1
    52                           	psect	text33,global,reloc=2,class=CODE,delta=1
    53                           	psect	text34,global,reloc=2,class=CODE,delta=1
    54                           	psect	text35,global,reloc=2,class=CODE,delta=1
    55                           	psect	text36,global,reloc=2,class=CODE,delta=1
    56                           	psect	text37,global,reloc=2,class=CODE,delta=1
    57                           	psect	text38,global,reloc=2,class=CODE,delta=1
    58                           	psect	text39,global,reloc=2,class=CODE,delta=1
    59                           	psect	text40,global,reloc=2,class=CODE,delta=1
    60                           	psect	text41,global,reloc=2,class=CODE,delta=1
    61                           	psect	text42,global,reloc=2,class=CODE,delta=1
    62                           	psect	text43,global,reloc=2,class=CODE,delta=1
    63                           	psect	text44,global,reloc=2,class=CODE,delta=1
    64                           	psect	text45,global,reloc=2,class=CODE,delta=1
    65                           	psect	intcode,global,reloc=2,class=CODE,delta=1
    66                           	psect	text47,global,reloc=2,class=CODE,delta=1
    67                           	psect	text48,global,reloc=2,class=CODE,delta=1
    68                           	psect	text49,global,reloc=2,class=CODE,delta=1
    69                           	psect	text50,global,reloc=2,class=CODE,delta=1
    70                           	psect	intsave_regs,global,class=BIGRAM,space=1,delta=1,noexec
    71                           	psect	text51,global,reloc=2,class=CODE,delta=1
    72                           	psect	rparam,global,class=COMRAM,space=1,delta=1,noexec
    73                           	psect	temp,global,ovrld,common,class=COMRAM,space=1,delta=1
    74                           	psect	idloc,global,abs,ovrld,class=IDLOC,space=5,delta=1,noexec
    75                           	psect	config,global,abs,ovrld,class=CONFIG,space=4,delta=1,noexec
    76   000000                     
    77                           ; Generated 12/10/2023 GMT
    78                           ; 
    79                           ; Copyright Â© 2023, Microchip Technology Inc. and its subsidiaries ("Microchip")
    80                           ; All rights reserved.
    81                           ; 
    82                           ; This software is developed by Microchip Technology Inc. and its subsidiaries ("Microch
      +                          ip").
    83                           ; 
    84                           ; Redistribution and use in source and binary forms, with or without modification, are
    85                           ; permitted provided that the following conditions are met:
    86                           ; 
    87                           ;     1. Redistributions of source code must retain the above copyright notice, this lis
      +                          t of
    88                           ;        conditions and the following disclaimer.
    89                           ; 
    90                           ;     2. Redistributions in binary form must reproduce the above copyright notice, this 
      +                          list
    91                           ;        of conditions and the following disclaimer in the documentation and/or other
    92                           ;        materials provided with the distribution. Publication is not required when
    93                           ;        this file is used in an embedded application.
    94                           ; 
    95                           ;     3. Microchip's name may not be used to endorse or promote products derived from th
      +                          is
    96                           ;        software without specific prior written permission.
    97                           ; 
    98                           ; THIS SOFTWARE IS PROVIDED BY MICROCHIP "AS IS" AND ANY EXPRESS OR IMPLIED WARRANTIES,
    99                           ; INCLUDING, BUT NOT LIMITED TO, THE IMPLIED WARRANTIES OF MERCHANTABILITY AND FITNESS F
      +                          OR
   100                           ; PURPOSE ARE DISCLAIMED.  IN NO EVENT SHALL MICROCHIP BE LIABLE FOR ANY DIRECT, INDIREC
      +                          T,
   101                           ; INCIDENTAL, SPECIAL, EXEMPLARY, OR CONSEQUENTIAL DAMAGES (INCLUDING BUT NOT LIMITED TO
   102                           ; PROCUREMENT OF SUBSTITUTE GOODS OR SERVICES; LOSS OF USE, DATA OR PROFITS; OR BUSINESS
   103                           ; INTERRUPTION) HOWSOEVER CAUSED AND ON ANY THEORY OF LIABILITY, WHETHER IN CONTRACT, ST
      +                          RICT
   104                           ; LIABILITY, OR TORT (INCLUDING NEGLIGENCE OR OTHERWISE) ARISING IN ANY WAY OUT OF THE U
      +                          SE OF
   105                           ; THIS SOFTWARE, EVEN IF ADVISED OF THE POSSIBILITY OF SUCH DAMAGE.
   106                           ; 
   107                           ; 
   108                           ; Code-generator required, PIC18F26K22 Definitions
   109                           ; 
   110                           ; SFR Addresses
   111   000000                     
   112 ;; Function _rd1RegCompleteHandler is unused but had its address taken
   113   000000                     
   114 ;; Function _rd2RegCompleteHandler is unused but had its address taken
   115   000000                     
   116 ;; Function _wr1RegCompleteHandler is unused but had its address taken
   117   000000                     
   118 ;; Function _wr2RegCompleteHandler is unused but had its address taken
   119   000000                     
   120 ;; Function _rdBlkRegCompleteHandler is unused but had its address taken
   121   000000                     
   122 ;; Function _EUSART1_DefaultFramingErrorHandler is unused but had its address taken
   123   000000                     
   124 ;; Function _EUSART1_DefaultOverrunErrorHandler is unused but had its address taken
   125   000000                     
   126 ;; Function _EUSART1_DefaultErrorHandler is unused but had its address taken
   127   000000                     
   128 ;; Function _I2C1_DO_IDLE is unused but had its address taken
   129   000000                     
   130 ;; Function _I2C1_DO_SEND_ADR_READ is unused but had its address taken
   131   000000                     
   132 ;; Function _I2C1_DO_SEND_ADR_WRITE is unused but had its address taken
   133   000000                     
   134 ;; Function _I2C1_DO_TX is unused but had its address taken
   135   000000                     
   136 ;; Function _I2C1_DO_RX is unused but had its address taken
   137   000000                     
   138 ;; Function _I2C1_DO_RCEN is unused but had its address taken
   139   000000                     
   140 ;; Function _I2C1_DO_TX_EMPTY is unused but had its address taken
   141   000000                     
   142 ;; Function _I2C1_DO_SEND_RESTART_READ is unused but had its address taken
   143   000000                     
   144 ;; Function _I2C1_DO_SEND_RESTART_WRITE is unused but had its address taken
   145   000000                     
   146 ;; Function _I2C1_DO_SEND_RESTART is unused but had its address taken
   147   000000                     
   148 ;; Function _I2C1_DO_SEND_STOP is unused but had its address taken
   149   000000                     
   150 ;; Function _I2C1_DO_RX_ACK is unused but had its address taken
   151   000000                     
   152 ;; Function _I2C1_DO_RX_NACK_STOP is unused but had its address taken
   153   000000                     
   154 ;; Function _I2C1_DO_RX_NACK_RESTART is unused but had its address taken
   155   000000                     
   156 ;; Function _I2C1_DO_RESET is unused but had its address taken
   157   000000                     
   158 ;; Function _I2C1_DO_ADDRESS_NACK is unused but had its address taken
   159   000000                     
   160 ;; Function _I2C1_CallbackReturnStop is unused but had its address taken
   161   000000                     
   162 ;; Function _I2C1_CallbackReturnReset is unused but had its address taken
   163   000000                     
   164                           	psect	idataBANK0
   165   0019DC                     __pidataBANK0:
   166                           	callstack 0
   167                           
   168                           ;initializer for main@F6383
   169   0019DC  61                 	db	97
   170   0019DD  62                 	db	98
   171   0019DE  63                 	db	99
   172   0019DF  64                 	db	100
   173   0019E0  65                 	db	101
   174   0019E1  66                 	db	102
   175   0019E2  67                 	db	103
   176   0019E3  68                 	db	104
   177   0019E4  69                 	db	105
   178   0019E5  6A                 	db	106
   179   0019E6  6B                 	db	107
   180                           
   181                           	psect	mediumconst
   182   00FE54                     __pmediumconst:
   183                           	callstack 0
   184   00FE54  00                 	db	0
   185   00FE55                     _i2c1_fsmStateTable:
   186                           	callstack 0
   187   00FE55  00                 	db	0
   188   00FE56  00                 	db	0
   189   00FE57  00                 	db	0
   190   00FE58  00                 	db	0
   191   00FE59  00                 	db	0
   192   00FE5A  00                 	db	0
   193   00FE5B  00                 	db	0
   194   00FE5C  00                 	db	0
   195   00FE5D  00                 	db	0
   196   00FE5E  00                 	db	0
   197   00FE5F  00                 	db	0
   198   00FE60  00                 	db	0
   199   00FE61  00                 	db	0
   200   00FE62  00                 	db	0
   201   00FE63  00                 	db	0
   202   00FE64  00                 	db	0
   203   00FE65  00                 	db	0
   204   00FE66  00                 	db	0
   205   00FE67  00                 	db	0
   206   00FE68  00                 	db	0
   207   00FE69  00                 	db	0
   208   00FE6A  00                 	db	0
   209   00FE6B  00                 	db	0
   210   00FE6C  00                 	db	0
   211   00FE6D  00                 	db	0
   212   00FE6E  00                 	db	0
   213   00FE6F  00                 	db	0
   214   00FE70  00                 	db	0
   215   00FE71  00                 	db	0
   216   00FE72  00                 	db	0
   217   00FE73  00                 	db	0
   218   00FE74  00                 	db	0
   219   00FE75                     __end_of_i2c1_fsmStateTable:
   220                           	callstack 0
   221   00FE75                     _spi2_configuration:
   222                           	callstack 0
   223   00FE75  00                 	db	0
   224   00FE76  40                 	db	64
   225   00FE77  01                 	db	1
   226   00FE78  00                 	db	0
   227   00FE79                     __end_of_spi2_configuration:
   228                           	callstack 0
   229   00FE79                     _spi1_configuration:
   230                           	callstack 0
   231   00FE79  00                 	db	0
   232   00FE7A  40                 	db	64
   233   00FE7B  27                 	db	39
   234   00FE7C  00                 	db	0
   235   00FE7D                     __end_of_spi1_configuration:
   236                           	callstack 0
   237   00FE7D                     _FsScape_FLASH_interface_style:
   238                           	callstack 0
   239   00FE7D  01                 	db	1
   240   00FE7E                     __end_of_FsScape_FLASH_interface_style:
   241                           	callstack 0
   242   00FE7E                     _FsScape_EEPROM_interface_style:
   243                           	callstack 0
   244   00FE7E  00                 	db	0
   245   00FE7F                     __end_of_FsScape_EEPROM_interface_style:
   246                           	callstack 0
   247   00FE7F                     _FsScape_SRAM_interface_style:
   248                           	callstack 0
   249   00FE7F  00                 	db	0
   250   00FE80                     __end_of_FsScape_SRAM_interface_style:
   251                           	callstack 0
   252   000000                     _T1CON	set	4045
   253   000000                     _TMR1L	set	4046
   254   000000                     _TMR1H	set	4047
   255   000000                     _TXREG1	set	4013
   256   000000                     _RCREG1	set	4014
   257   000000                     _SPBRG1	set	4015
   258   000000                     _TXSTA1	set	4012
   259   000000                     _ANSELA	set	3896
   260   000000                     _ANSELB	set	3897
   261   000000                     _ANSELC	set	3898
   262   000000                     _LATA	set	3977
   263   000000                     _OSCTUNE	set	3995
   264   000000                     _OSCCON2	set	4050
   265   000000                     _OSCCON	set	4051
   266   00FE80                     STR_5:
   267   00FE80  56                 	db	86	;'V'
   268   00FE81  65                 	db	101	;'e'
   269   00FE82  72                 	db	114	;'r'
   270   00FE83  69                 	db	105	;'i'
   271   00FE84  66                 	db	102	;'f'
   272   00FE85  69                 	db	105	;'i'
   273   00FE86  63                 	db	99	;'c'
   274   00FE87  61                 	db	97	;'a'
   275   00FE88  6E                 	db	110	;'n'
   276   00FE89  64                 	db	100	;'d'
   277   00FE8A  6F                 	db	111	;'o'
   278   00FE8B  20                 	db	32
   279   00FE8C  6F                 	db	111	;'o'
   280   00FE8D  20                 	db	32
   281   00FE8E  70                 	db	112	;'p'
   282   00FE8F  6F                 	db	111	;'o'
   283   00FE90  6E                 	db	110	;'n'
   284   00FE91  74                 	db	116	;'t'
   285   00FE92  65                 	db	101	;'e'
   286   00FE93  69                 	db	105	;'i'
   287   00FE94  72                 	db	114	;'r'
   288   00FE95  6F                 	db	111	;'o'
   289   00FE96  20                 	db	32
   290   00FE97  64                 	db	100	;'d'
   291   00FE98  65                 	db	101	;'e'
   292   00FE99  20                 	db	32
   293   00FE9A  65                 	db	101	;'e'
   294   00FE9B  6E                 	db	110	;'n'
   295   00FE9C  64                 	db	100	;'d'
   296   00FE9D  65                 	db	101	;'e'
   297   00FE9E  72                 	db	114	;'r'
   298   00FE9F  65                 	db	101	;'e'
   299   00FEA0  63                 	db	99	;'c'
   300   00FEA1  61                 	db	97	;'a'
   301   00FEA2  6D                 	db	109	;'m'
   302   00FEA3  65                 	db	101	;'e'
   303   00FEA4  6E                 	db	110	;'n'
   304   00FEA5  74                 	db	116	;'t'
   305   00FEA6  6F                 	db	111	;'o'
   306   00FEA7  2E                 	db	46
   307   00FEA8  2E                 	db	46
   308   00FEA9  2E                 	db	46
   309   00FEAA  0A                 	db	10
   310   00FEAB  00                 	db	0
   311   00FEAC                     STR_4:
   312   00FEAC  48                 	db	72	;'H'
   313   00FEAD  61                 	db	97	;'a'
   314   00FEAE  20                 	db	32
   315   00FEAF  61                 	db	97	;'a'
   316   00FEB0  6C                 	db	108	;'l'
   317   00FEB1  67                 	db	103	;'g'
   318   00FEB2  6F                 	db	111	;'o'
   319   00FEB3  20                 	db	32
   320   00FEB4  64                 	db	100	;'d'
   321   00FEB5  65                 	db	101	;'e'
   322   00FEB6  20                 	db	32
   323   00FEB7  65                 	db	101	;'e'
   324   00FEB8  72                 	db	114	;'r'
   325   00FEB9  72                 	db	114	;'r'
   326   00FEBA  61                 	db	97	;'a'
   327   00FEBB  64                 	db	100	;'d'
   328   00FEBC  6F                 	db	111	;'o'
   329   00FEBD  20                 	db	32
   330   00FEBE  63                 	db	99	;'c'
   331   00FEBF  6F                 	db	111	;'o'
   332   00FEC0  6D                 	db	109	;'m'
   333   00FEC1  20                 	db	32
   334   00FEC2  61                 	db	97	;'a'
   335   00FEC3  20                 	db	32
   336   00FEC4  6D                 	db	109	;'m'
   337   00FEC5  65                 	db	101	;'e'
   338   00FEC6  6D                 	db	109	;'m'
   339   00FEC7  6F                 	db	111	;'o'
   340   00FEC8  72                 	db	114	;'r'
   341   00FEC9  69                 	db	105	;'i'
   342   00FECA  61                 	db	97	;'a'
   343   00FECB  20                 	db	32
   344   00FECC  53                 	db	83	;'S'
   345   00FECD  52                 	db	82	;'R'
   346   00FECE  41                 	db	65	;'A'
   347   00FECF  4D                 	db	77	;'M'
   348   00FED0  21                 	db	33
   349   00FED1  21                 	db	33
   350   00FED2  21                 	db	33
   351   00FED3  0A                 	db	10
   352   00FED4  00                 	db	0
   353   00FED5                     STR_3:
   354   00FED5  4F                 	db	79	;'O'
   355   00FED6  20                 	db	32
   356   00FED7  73                 	db	115	;'s'
   357   00FED8  69                 	db	105	;'i'
   358   00FED9  73                 	db	115	;'s'
   359   00FEDA  74                 	db	116	;'t'
   360   00FEDB  65                 	db	101	;'e'
   361   00FEDC  6D                 	db	109	;'m'
   362   00FEDD  61                 	db	97	;'a'
   363   00FEDE  20                 	db	32
   364   00FEDF  69                 	db	105	;'i'
   365   00FEE0  64                 	db	100	;'d'
   366   00FEE1  65                 	db	101	;'e'
   367   00FEE2  6E                 	db	110	;'n'
   368   00FEE3  74                 	db	116	;'t'
   369   00FEE4  69                 	db	105	;'i'
   370   00FEE5  66                 	db	102	;'f'
   371   00FEE6  69                 	db	105	;'i'
   372   00FEE7  63                 	db	99	;'c'
   373   00FEE8  6F                 	db	111	;'o'
   374   00FEE9  75                 	db	117	;'u'
   375   00FEEA  20                 	db	32
   376   00FEEB  61                 	db	97	;'a'
   377   00FEEC  20                 	db	32
   378   00FEED  6D                 	db	109	;'m'
   379   00FEEE  65                 	db	101	;'e'
   380   00FEEF  6D                 	db	109	;'m'
   381   00FEF0  6F                 	db	111	;'o'
   382   00FEF1  72                 	db	114	;'r'
   383   00FEF2  69                 	db	105	;'i'
   384   00FEF3  61                 	db	97	;'a'
   385   00FEF4  20                 	db	32
   386   00FEF5  53                 	db	83	;'S'
   387   00FEF6  52                 	db	82	;'R'
   388   00FEF7  41                 	db	65	;'A'
   389   00FEF8  4D                 	db	77	;'M'
   390   00FEF9  21                 	db	33
   391   00FEFA  21                 	db	33
   392   00FEFB  21                 	db	33
   393   00FEFC  0A                 	db	10
   394   00FEFD  00                 	db	0
   395   00FEFE                     STR_7:
   396   00FEFE  41                 	db	65	;'A'
   397   00FEFF  6C                 	db	108	;'l'
   398   00FF00  74                 	db	116	;'t'
   399   00FF01  65                 	db	101	;'e'
   400   00FF02  72                 	db	114	;'r'
   401   00FF03  61                 	db	97	;'a'
   402   00FF04  6E                 	db	110	;'n'
   403   00FF05  64                 	db	100	;'d'
   404   00FF06  6F                 	db	111	;'o'
   405   00FF07  20                 	db	32
   406   00FF08  6F                 	db	111	;'o'
   407   00FF09  20                 	db	32
   408   00FF0A  65                 	db	101	;'e'
   409   00FF0B  6E                 	db	110	;'n'
   410   00FF0C  64                 	db	100	;'d'
   411   00FF0D  65                 	db	101	;'e'
   412   00FF0E  72                 	db	114	;'r'
   413   00FF0F  65                 	db	101	;'e'
   414   00FF10  E7                 	db	-25
   415   00FF11  6F                 	db	111	;'o'
   416   00FF12  20                 	db	32
   417   00FF13  70                 	db	112	;'p'
   418   00FF14  61                 	db	97	;'a'
   419   00FF15  72                 	db	114	;'r'
   420   00FF16  61                 	db	97	;'a'
   421   00FF17  3A                 	db	58	;':'
   422   00FF18  20                 	db	32
   423   00FF19  30                 	db	48	;'0'
   424   00FF1A  78                 	db	120	;'x'
   425   00FF1B  31                 	db	49	;'1'
   426   00FF1C  32                 	db	50	;'2'
   427   00FF1D  35                 	db	53	;'5'
   428   00FF1E  36                 	db	54	;'6'
   429   00FF1F  34                 	db	52	;'4'
   430   00FF20  37                 	db	55	;'7'
   431   00FF21  38                 	db	56	;'8'
   432   00FF22  39                 	db	57	;'9'
   433   00FF23  0A                 	db	10
   434   00FF24  00                 	db	0
   435   00FF25                     STR_10:
   436   00FF25  41                 	db	65	;'A'
   437   00FF26  6C                 	db	108	;'l'
   438   00FF27  74                 	db	116	;'t'
   439   00FF28  65                 	db	101	;'e'
   440   00FF29  72                 	db	114	;'r'
   441   00FF2A  61                 	db	97	;'a'
   442   00FF2B  6E                 	db	110	;'n'
   443   00FF2C  64                 	db	100	;'d'
   444   00FF2D  6F                 	db	111	;'o'
   445   00FF2E  20                 	db	32
   446   00FF2F  6F                 	db	111	;'o'
   447   00FF30  20                 	db	32
   448   00FF31  63                 	db	99	;'c'
   449   00FF32  72                 	db	114	;'r'
   450   00FF33  63                 	db	99	;'c'
   451   00FF34  20                 	db	32
   452   00FF35  70                 	db	112	;'p'
   453   00FF36  61                 	db	97	;'a'
   454   00FF37  72                 	db	114	;'r'
   455   00FF38  61                 	db	97	;'a'
   456   00FF39  3A                 	db	58	;':'
   457   00FF3A  20                 	db	32
   458   00FF3B  30                 	db	48	;'0'
   459   00FF3C  78                 	db	120	;'x'
   460   00FF3D  31                 	db	49	;'1'
   461   00FF3E  32                 	db	50	;'2'
   462   00FF3F  35                 	db	53	;'5'
   463   00FF40  36                 	db	54	;'6'
   464   00FF41  34                 	db	52	;'4'
   465   00FF42  37                 	db	55	;'7'
   466   00FF43  38                 	db	56	;'8'
   467   00FF44  39                 	db	57	;'9'
   468   00FF45  0A                 	db	10
   469   00FF46  00                 	db	0
   470   00FF47                     STR_6:
   471   00FF47  4F                 	db	79	;'O'
   472   00FF48  20                 	db	32
   473   00FF49  70                 	db	112	;'p'
   474   00FF4A  6F                 	db	111	;'o'
   475   00FF4B  6E                 	db	110	;'n'
   476   00FF4C  74                 	db	116	;'t'
   477   00FF4D  65                 	db	101	;'e'
   478   00FF4E  69                 	db	105	;'i'
   479   00FF4F  72                 	db	114	;'r'
   480   00FF50  6F                 	db	111	;'o'
   481   00FF51  20                 	db	32
   482   00FF52  65                 	db	101	;'e'
   483   00FF53  6E                 	db	110	;'n'
   484   00FF54  63                 	db	99	;'c'
   485   00FF55  6F                 	db	111	;'o'
   486   00FF56  6E                 	db	110	;'n'
   487   00FF57  74                 	db	116	;'t'
   488   00FF58  72                 	db	114	;'r'
   489   00FF59  61                 	db	97	;'a'
   490   00FF5A  64                 	db	100	;'d'
   491   00FF5B  6F                 	db	111	;'o'
   492   00FF5C  20                 	db	32
   493   00FF5D  66                 	db	102	;'f'
   494   00FF5E  6F                 	db	111	;'o'
   495   00FF5F  69                 	db	105	;'i'
   496   00FF60  3A                 	db	58	;':'
   497   00FF61  20                 	db	32
   498   00FF62  30                 	db	48	;'0'
   499   00FF63  78                 	db	120	;'x'
   500   00FF64  25                 	db	37
   501   00FF65  6C                 	db	108	;'l'
   502   00FF66  58                 	db	88	;'X'
   503   00FF67  0A                 	db	10
   504   00FF68  00                 	db	0
   505   00FF69                     STR_12:
   506   00FF69  4F                 	db	79	;'O'
   507   00FF6A  20                 	db	32
   508   00FF6B  63                 	db	99	;'c'
   509   00FF6C  72                 	db	114	;'r'
   510   00FF6D  63                 	db	99	;'c'
   511   00FF6E  20                 	db	32
   512   00FF6F  65                 	db	101	;'e'
   513   00FF70  6E                 	db	110	;'n'
   514   00FF71  63                 	db	99	;'c'
   515   00FF72  6F                 	db	111	;'o'
   516   00FF73  6E                 	db	110	;'n'
   517   00FF74  74                 	db	116	;'t'
   518   00FF75  72                 	db	114	;'r'
   519   00FF76  61                 	db	97	;'a'
   520   00FF77  64                 	db	100	;'d'
   521   00FF78  6F                 	db	111	;'o'
   522   00FF79  20                 	db	32
   523   00FF7A  66                 	db	102	;'f'
   524   00FF7B  6F                 	db	111	;'o'
   525   00FF7C  69                 	db	105	;'i'
   526   00FF7D  3A                 	db	58	;':'
   527   00FF7E  20                 	db	32
   528   00FF7F  30                 	db	48	;'0'
   529   00FF80  78                 	db	120	;'x'
   530   00FF81  25                 	db	37
   531   00FF82  6C                 	db	108	;'l'
   532   00FF83  58                 	db	88	;'X'
   533   00FF84  0A                 	db	10
   534   00FF85  00                 	db	0
   535   00FF86                     STR_8:
   536   00FF86  56                 	db	86	;'V'
   537   00FF87  65                 	db	101	;'e'
   538   00FF88  72                 	db	114	;'r'
   539   00FF89  69                 	db	105	;'i'
   540   00FF8A  66                 	db	102	;'f'
   541   00FF8B  69                 	db	105	;'i'
   542   00FF8C  63                 	db	99	;'c'
   543   00FF8D  61                 	db	97	;'a'
   544   00FF8E  6E                 	db	110	;'n'
   545   00FF8F  64                 	db	100	;'d'
   546   00FF90  6F                 	db	111	;'o'
   547   00FF91  20                 	db	32
   548   00FF92  6F                 	db	111	;'o'
   549   00FF93  20                 	db	32
   550   00FF94  6E                 	db	110	;'n'
   551   00FF95  6F                 	db	111	;'o'
   552   00FF96  76                 	db	118	;'v'
   553   00FF97  6F                 	db	111	;'o'
   554   00FF98  20                 	db	32
   555   00FF99  70                 	db	112	;'p'
   556   00FF9A  6F                 	db	111	;'o'
   557   00FF9B  6E                 	db	110	;'n'
   558   00FF9C  74                 	db	116	;'t'
   559   00FF9D  65                 	db	101	;'e'
   560   00FF9E  69                 	db	105	;'i'
   561   00FF9F  72                 	db	114	;'r'
   562   00FFA0  6F                 	db	111	;'o'
   563   00FFA1  0A                 	db	10
   564   00FFA2  00                 	db	0
   565   00FFA3  69                 	db	105	;'i'
   566   00FFA4  32                 	db	50	;'2'
   567   00FFA5  63                 	db	99	;'c'
   568   00FFA6  20                 	db	32
   569   00FFA7  64                 	db	100	;'d'
   570   00FFA8  69                 	db	105	;'i'
   571   00FFA9  72                 	db	114	;'r'
   572   00FFAA  74                 	db	116	;'t'
   573   00FFAB  79                 	db	121	;'y'
   574   00FFAC  20                 	db	32
   575   00FFAD  6F                 	db	111	;'o'
   576   00FFAE  6E                 	db	110	;'n'
   577   00FFAF  20                 	db	32
   578   00FFB0  66                 	db	102	;'f'
   579   00FFB1  69                 	db	105	;'i'
   580   00FFB2  72                 	db	114	;'r'
   581   00FFB3  73                 	db	115	;'s'
   582   00FFB4  74                 	db	116	;'t'
   583   00FFB5  20                 	db	32
   584   00FFB6  63                 	db	99	;'c'
   585   00FFB7  68                 	db	104	;'h'
   586   00FFB8  65                 	db	101	;'e'
   587   00FFB9  63                 	db	99	;'c'
   588   00FFBA  6B                 	db	107	;'k'
   589   00FFBB  0A                 	db	10
   590   00FFBC  00                 	db	0
   591   00FFBD                     STR_11:
   592   00FFBD  56                 	db	86	;'V'
   593   00FFBE  65                 	db	101	;'e'
   594   00FFBF  72                 	db	114	;'r'
   595   00FFC0  69                 	db	105	;'i'
   596   00FFC1  66                 	db	102	;'f'
   597   00FFC2  69                 	db	105	;'i'
   598   00FFC3  63                 	db	99	;'c'
   599   00FFC4  61                 	db	97	;'a'
   600   00FFC5  6E                 	db	110	;'n'
   601   00FFC6  64                 	db	100	;'d'
   602   00FFC7  6F                 	db	111	;'o'
   603   00FFC8  20                 	db	32
   604   00FFC9  6F                 	db	111	;'o'
   605   00FFCA  20                 	db	32
   606   00FFCB  6E                 	db	110	;'n'
   607   00FFCC  6F                 	db	111	;'o'
   608   00FFCD  76                 	db	118	;'v'
   609   00FFCE  6F                 	db	111	;'o'
   610   00FFCF  20                 	db	32
   611   00FFD0  63                 	db	99	;'c'
   612   00FFD1  72                 	db	114	;'r'
   613   00FFD2  63                 	db	99	;'c'
   614   00FFD3  0A                 	db	10
   615   00FFD4  00                 	db	0
   616   00FFD5                     STR_2:
   617   00FFD5  49                 	db	73	;'I'
   618   00FFD6  6E                 	db	110	;'n'
   619   00FFD7  69                 	db	105	;'i'
   620   00FFD8  74                 	db	116	;'t'
   621   00FFD9  20                 	db	32
   622   00FFDA  69                 	db	105	;'i'
   623   00FFDB  32                 	db	50	;'2'
   624   00FFDC  63                 	db	99	;'c'
   625   00FFDD  20                 	db	32
   626   00FFDE  62                 	db	98	;'b'
   627   00FFDF  75                 	db	117	;'u'
   628   00FFE0  73                 	db	115	;'s'
   629   00FFE1  5F                 	db	95	;'_'
   630   00FFE2  72                 	db	114	;'r'
   631   00FFE3  65                 	db	101	;'e'
   632   00FFE4  73                 	db	115	;'s'
   633   00FFE5  65                 	db	101	;'e'
   634   00FFE6  74                 	db	116	;'t'
   635   00FFE7  3A                 	db	58	;':'
   636   00FFE8  20                 	db	32
   637   00FFE9  25                 	db	37
   638   00FFEA  69                 	db	105	;'i'
   639   00FFEB  0A                 	db	10
   640   00FFEC  00                 	db	0
   641   00FFED                     STR_1:
   642   00FFED  53                 	db	83	;'S'
   643   00FFEE  69                 	db	105	;'i'
   644   00FFEF  73                 	db	115	;'s'
   645   00FFF0  74                 	db	116	;'t'
   646   00FFF1  65                 	db	101	;'e'
   647   00FFF2  6D                 	db	109	;'m'
   648   00FFF3  61                 	db	97	;'a'
   649   00FFF4  20                 	db	32
   650   00FFF5  49                 	db	73	;'I'
   651   00FFF6  6E                 	db	110	;'n'
   652   00FFF7  69                 	db	105	;'i'
   653   00FFF8  63                 	db	99	;'c'
   654   00FFF9  69                 	db	105	;'i'
   655   00FFFA  61                 	db	97	;'a'
   656   00FFFB  64                 	db	100	;'d'
   657   00FFFC  6F                 	db	111	;'o'
   658   00FFFD  0A                 	db	10
   659   00FFFE  00                 	db	0
   660   00FFFF  00                 	db	0	; dummy byte at the end
   661   000000                     
   662                           	psect	nvBANK0
   663   0000FB                     __pnvBANK0:
   664                           	callstack 0
   665   0000FB                     _TMR1_InterruptHandler:
   666                           	callstack 0
   667   0000FB                     	ds	2
   668   0000FD                     _EUSART1_FramingErrorHandler:
   669                           	callstack 0
   670   0000FD                     	ds	2
   671                           
   672                           	psect	nvBANK1
   673   0001FE                     __pnvBANK1:
   674                           	callstack 0
   675   0001FE                     _EUSART1_OverrunErrorHandler:
   676                           	callstack 0
   677   0001FE                     	ds	2
   678                           
   679                           	psect	nvBANK2
   680   0002FE                     __pnvBANK2:
   681                           	callstack 0
   682   0002FE                     _EUSART1_ErrorHandler:
   683                           	callstack 0
   684   0002FE                     	ds	2
   685   000000                     _TMR1	set	4046
   686   000000                     _LATCbits	set	3979
   687   000000                     _LATBbits	set	3978
   688   000000                     _SSP2CON1bits	set	3948
   689   000000                     _TRISBbits	set	3987
   690   000000                     _SSP1STATbits	set	4039
   691   000000                     _SSP1CON2bits	set	4037
   692   000000                     _T1GCONbits	set	4044
   693   000000                     _T1CONbits	set	4045
   694   000000                     _SSP1CON1bits	set	4038
   695   000000                     _TRISCbits	set	3988
   696   000000                     _RCSTA1bits	set	4011
   697   000000                     _TXSTA1bits	set	4012
   698   000000                     _INTCON2bits	set	4081
   699   000000                     _PIE1bits	set	3997
   700   000000                     _PIR1bits	set	3998
   701   000000                     _RCSTA1	set	4011
   702   000000                     _BAUDCON1	set	4024
   703   000000                     _TRISA	set	3986
   704   000000                     _LATC	set	3979
   705   000000                     _LATB	set	3978
   706   000000                     _TRISC	set	3988
   707   000000                     _TRISB	set	3987
   708   000000                     _WPUB	set	3937
   709   000000                     _SSP2CON2	set	3947
   710   000000                     _SSP2CON1	set	3948
   711   000000                     _SSP2STAT	set	3949
   712   000000                     _INTCONbits	set	4082
   713   000000                     _SSP1CON2	set	4037
   714   000000                     _SSP1CON1	set	4038
   715   000000                     _SSP1STAT	set	4039
   716   000000                     _RCONbits	set	4048
   717   000000                     _SPBRGH1	set	4016
   718   000000                     _PIR2bits	set	4001
   719   000000                     _T1GCON	set	4044
   720   000000                     _SSP1BUF	set	4041
   721   000000                     _SSP1ADD	set	4040
   722   000000                     _PIR3bits	set	4004
   723   000000                     _PORTCbits	set	3970
   724   000000                     _SSP2BUF	set	3951
   725   000000                     _SSP2ADD	set	3950
   726                           
   727                           ; #config settings
   728                           
   729                           	psect	cinit
   730   001684                     __pcinit:
   731                           	callstack 0
   732   001684                     start_initialization:
   733                           	callstack 0
   734   001684                     __initialization:
   735                           	callstack 0
   736                           
   737                           ; Initialize objects allocated to BANK0 (11 bytes)
   738                           ; load TBLPTR registers with __pidataBANK0
   739   001684  0EDC               	movlw	low __pidataBANK0
   740   001686  6EF6               	movwf	tblptrl,c
   741   001688  0E19               	movlw	high __pidataBANK0
   742   00168A  6EF7               	movwf	tblptrh,c
   743   00168C  0E00               	movlw	low (__pidataBANK0 shr (0+16))
   744   00168E  6EF8               	movwf	tblptru,c
   745   001690  EE00  F0F0         	lfsr	0,__pdataBANK0
   746   001694  EE10 F00B          	lfsr	1,11
   747   001698                     copy_data0:
   748   001698  0009               	tblrd		*+
   749   00169A  CFF5 FFEE          	movff	tablat,postinc0
   750   00169E  50E5               	movf	postdec1,w,c
   751   0016A0  50E1               	movf	fsr1l,w,c
   752   0016A2  E1FA               	bnz	copy_data0
   753                           
   754                           ; Clear objects allocated to BANK2 (254 bytes)
   755   0016A4  EE02  F000         	lfsr	0,__pbssBANK2
   756   0016A8  0EFE               	movlw	254
   757   0016AA                     clear_0:
   758   0016AA  6AEE               	clrf	postinc0,c
   759   0016AC  06E8               	decf	wreg,f,c
   760   0016AE  E1FD               	bnz	clear_0
   761                           
   762                           ; Clear objects allocated to BANK0 (108 bytes)
   763   0016B0  EE00  F060         	lfsr	0,__pbssBANK0
   764   0016B4  0E6C               	movlw	108
   765   0016B6                     clear_1:
   766   0016B6  6AEE               	clrf	postinc0,c
   767   0016B8  06E8               	decf	wreg,f,c
   768   0016BA  E1FD               	bnz	clear_1
   769                           
   770                           ; Clear objects allocated to COMRAM (4 bytes)
   771   0016BC  6A5A               	clrf	(__pbssCOMRAM+3)& (0+255),c
   772   0016BE  6A59               	clrf	(__pbssCOMRAM+2)& (0+255),c
   773   0016C0  6A58               	clrf	(__pbssCOMRAM+1)& (0+255),c
   774   0016C2  6A57               	clrf	__pbssCOMRAM& (0+255),c
   775   0016C4                     end_of_initialization:
   776                           	callstack 0
   777   0016C4                     __end_of__initialization:
   778                           	callstack 0
   779   0016C4  905B               	bcf	int$flags,0,c	;clear compiler interrupt flag (level 1)
   780   0016C6  925B               	bcf	int$flags,1,c	;clear compiler interrupt flag (level 2)
   781   0016C8  0100               	movlb	0
   782   0016CA  EFC0  F001         	goto	_main	;jump to C main() function
   783                           
   784                           	psect	bssCOMRAM
   785   000057                     __pbssCOMRAM:
   786                           	callstack 0
   787   000057                     _I2Cflags:
   788                           	callstack 0
   789   000057                     	ds	2
   790   000059                     _timer1ReloadVal:
   791                           	callstack 0
   792   000059                     	ds	2
   793                           
   794                           	psect	bssBANK0
   795   000060                     __pbssBANK0:
   796                           	callstack 0
   797   000060                     _I2C1_Status:
   798                           	callstack 0
   799   000060                     	ds	36
   800   000084                     _AT45dbxx:
   801                           	callstack 0
   802   000084                     	ds	6
   803   00008A                     _timer_overflow_count:
   804                           	callstack 0
   805   00008A                     	ds	4
   806   00008E                     __millis:
   807                           	callstack 0
   808   00008E                     	ds	4
   809   000092                     __micros:
   810                           	callstack 0
   811   000092                     	ds	4
   812   000096                     _fsscape_SRAM_index_addr:
   813                           	callstack 0
   814   000096                     	ds	4
   815   00009A                     _myi_AT45dbxx:
   816                           	callstack 0
   817   00009A                     	ds	4
   818   00009E                     _width:
   819                           	callstack 0
   820   00009E                     	ds	2
   821   0000A0                     _prec:
   822                           	callstack 0
   823   0000A0                     	ds	2
   824   0000A2                     _FsScape_CSbit:
   825                           	callstack 0
   826   0000A2                     	ds	2
   827   0000A4                     _FsScape_CS:
   828                           	callstack 0
   829   0000A4                     	ds	2
   830   0000A6                     _flags:
   831                           	callstack 0
   832   0000A6                     	ds	1
   833   0000A7                     _timer_fract:
   834                           	callstack 0
   835   0000A7                     	ds	1
   836   0000A8                     _FsScape_i2c_FLASH_addr:
   837                           	callstack 0
   838   0000A8                     	ds	1
   839   0000A9                     _FsScape_i2c_EEPROM_addr:
   840                           	callstack 0
   841   0000A9                     	ds	1
   842   0000AA                     _FsScape_i2c_SRAM_addr:
   843                           	callstack 0
   844   0000AA                     	ds	1
   845   0000AB                     _eusart1RxLastError:
   846                           	callstack 0
   847   0000AB                     	ds	1
   848   0000AC                     _dbuf:
   849                           	callstack 0
   850   0000AC                     	ds	32
   851                           
   852                           	psect	dataBANK0
   853   0000F0                     __pdataBANK0:
   854                           	callstack 0
   855   0000F0                     main@F6383:
   856                           	callstack 0
   857   0000F0                     	ds	11
   858                           
   859                           	psect	bssBANK2
   860   000200                     __pbssBANK2:
   861                           	callstack 0
   862   000200                     	ds	254
   863                           
   864                           	psect	cstackBANK3
   865   000300                     __pcstackBANK3:
   866                           	callstack 0
   867   000300                     main@check2:
   868                           	callstack 0
   869                           
   870                           ; 4 bytes @ 0x0
   871   000300                     	ds	4
   872                           
   873                           	psect	cstackBANK1
   874   000100                     __pcstackBANK1:
   875                           	callstack 0
   876   000100                     main@valoresrx:
   877                           	callstack 0
   878                           
   879                           ; 254 bytes @ 0x0
   880   000100                     	ds	254
   881                           
   882                           	psect	cstackBANK0
   883   0000CC                     __pcstackBANK0:
   884                           	callstack 0
   885   0000CC                     main@valorestx:
   886                           	callstack 0
   887                           
   888                           ; 11 bytes @ 0x0
   889   0000CC                     	ds	11
   890   0000D7                     main@check3:
   891                           	callstack 0
   892                           
   893                           ; 4 bytes @ 0xB
   894   0000D7                     	ds	4
   895   0000DB                     main@valor2:
   896                           	callstack 0
   897                           
   898                           ; 1 bytes @ 0xF
   899   0000DB                     	ds	1
   900   0000DC                     main@temp:
   901                           	callstack 0
   902                           
   903                           ; 1 bytes @ 0x10
   904   0000DC                     	ds	1
   905   0000DD                     main@temp2:
   906                           	callstack 0
   907                           
   908                           ; 1 bytes @ 0x11
   909   0000DD                     	ds	1
   910   0000DE                     main@bus_reset:
   911                           	callstack 0
   912                           
   913                           ; 2 bytes @ 0x12
   914   0000DE                     	ds	2
   915   0000E0                     main@adressme3:
   916                           	callstack 0
   917                           
   918                           ; 4 bytes @ 0x14
   919   0000E0                     	ds	4
   920   0000E4                     main@check1:
   921                           	callstack 0
   922                           
   923                           ; 4 bytes @ 0x18
   924   0000E4                     	ds	4
   925   0000E8                     main@adressme:
   926                           	callstack 0
   927                           
   928                           ; 4 bytes @ 0x1C
   929   0000E8                     	ds	4
   930   0000EC                     main@adressme2:
   931                           	callstack 0
   932                           
   933                           ; 4 bytes @ 0x20
   934   0000EC                     	ds	4
   935                           
   936                           	psect	cstackCOMRAM
   937   000001                     __pcstackCOMRAM:
   938                           	callstack 0
   939   000001                     TMR1_WriteTimer@timerVal:
   940                           	callstack 0
   941                           
   942                           ; 2 bytes @ 0x0
   943   000001                     	ds	2
   944   000003                     ??_INTERRUPT_InterruptManager:
   945   000003                     
   946                           ; 1 bytes @ 0x2
   947   000003                     	ds	2
   948   000005                     ?_I2C2_M_BusReset:
   949                           	callstack 0
   950   000005                     ?_I2C2_M_Start:
   951                           	callstack 0
   952   000005                     ?_I2C2_M_WriteByte:
   953                           	callstack 0
   954   000005                     ?_I2C2_M_Stop:
   955                           	callstack 0
   956   000005                     ?_I2C2_M_Restart:
   957                           	callstack 0
   958   000005                     ?_I2C2_M_ReadByte:
   959                           	callstack 0
   960   000005                     ?_millis:
   961                           	callstack 0
   962   000005                     ?___lldiv:
   963                           	callstack 0
   964   000005                     ?___aldiv:
   965                           	callstack 0
   966   000005                     ?___almod:
   967                           	callstack 0
   968   000005                     EUSART1_Write@txData:
   969                           	callstack 0
   970   000005                     EUSART1_SetFramingErrorHandler@interruptHandler:
   971                           	callstack 0
   972   000005                     EUSART1_SetOverrunErrorHandler@interruptHandler:
   973                           	callstack 0
   974   000005                     EUSART1_SetErrorHandler@interruptHandler:
   975                           	callstack 0
   976   000005                     TMR1_SetInterruptHandler@InterruptHandler:
   977                           	callstack 0
   978   000005                     ___lldiv@dividend:
   979                           	callstack 0
   980   000005                     ___aldiv@dividend:
   981                           	callstack 0
   982   000005                     ___almod@dividend:
   983                           	callstack 0
   984                           
   985                           ; 4 bytes @ 0x4
   986   000005                     	ds	1
   987   000006                     putch@txData:
   988                           	callstack 0
   989                           
   990                           ; 1 bytes @ 0x5
   991   000006                     	ds	1
   992   000007                     I2C2_M_ReadByte@ACKflag:
   993                           	callstack 0
   994   000007                     I2C2_M_WriteByte@cData:
   995                           	callstack 0
   996   000007                     I2C2_M_BusReset@i:
   997                           	callstack 0
   998   000007                     I2C2_M_Restart@t:
   999                           	callstack 0
  1000   000007                     I2C2_M_Start@t:
  1001                           	callstack 0
  1002   000007                     I2C2_M_Stop@t:
  1003                           	callstack 0
  1004   000007                     fputc@c:
  1005                           	callstack 0
  1006                           
  1007                           ; 2 bytes @ 0x6
  1008   000007                     	ds	1
  1009   000008                     I2C2_M_ReadByte@t:
  1010                           	callstack 0
  1011   000008                     I2C2_M_WriteByte@t:
  1012                           	callstack 0
  1013                           
  1014                           ; 2 bytes @ 0x7
  1015   000008                     	ds	1
  1016   000009                     ?_I2C2_M_RecoverBus:
  1017                           	callstack 0
  1018   000009                     fputc@fp:
  1019                           	callstack 0
  1020   000009                     millis@m:
  1021                           	callstack 0
  1022   000009                     ___lldiv@divisor:
  1023                           	callstack 0
  1024   000009                     ___aldiv@divisor:
  1025                           	callstack 0
  1026   000009                     ___almod@divisor:
  1027                           	callstack 0
  1028                           
  1029                           ; 4 bytes @ 0x8
  1030   000009                     	ds	1
  1031   00000A                     ?_I2C_Mem_Write:
  1032                           	callstack 0
  1033   00000A                     ?_I2C_Mem_Read:
  1034                           	callstack 0
  1035   00000A                     I2C_Mem_Write@MemAdress:
  1036                           	callstack 0
  1037   00000A                     I2C_Mem_Read@MemAdress:
  1038                           	callstack 0
  1039                           
  1040                           ; 2 bytes @ 0x9
  1041   00000A                     	ds	1
  1042   00000B                     ??_fputc:
  1043   00000B                     I2C2_M_RecoverBus@status:
  1044                           	callstack 0
  1045                           
  1046                           ; 2 bytes @ 0xA
  1047   00000B                     	ds	1
  1048   00000C                     I2C_Mem_Write@MemAddSize:
  1049                           	callstack 0
  1050   00000C                     I2C_Mem_Read@MemAddSize:
  1051                           	callstack 0
  1052                           
  1053                           ; 2 bytes @ 0xB
  1054   00000C                     	ds	1
  1055   00000D                     ?_I2C2_M_Poll:
  1056                           	callstack 0
  1057   00000D                     ___aldiv@counter:
  1058                           	callstack 0
  1059   00000D                     ___almod@counter:
  1060                           	callstack 0
  1061   00000D                     ___lldiv@quotient:
  1062                           	callstack 0
  1063                           
  1064                           ; 4 bytes @ 0xC
  1065   00000D                     	ds	1
  1066   00000E                     ___aldiv@sign:
  1067                           	callstack 0
  1068   00000E                     ___almod@sign:
  1069                           	callstack 0
  1070   00000E                     I2C_Mem_Write@pData:
  1071                           	callstack 0
  1072   00000E                     I2C_Mem_Read@pData:
  1073                           	callstack 0
  1074                           
  1075                           ; 2 bytes @ 0xD
  1076   00000E                     	ds	1
  1077   00000F                     ?_abs:
  1078                           	callstack 0
  1079   00000F                     I2C2_M_Poll@DevAddr:
  1080                           	callstack 0
  1081   00000F                     abs@a:
  1082                           	callstack 0
  1083   00000F                     ___aldiv@quotient:
  1084                           	callstack 0
  1085                           
  1086                           ; 4 bytes @ 0xE
  1087   00000F                     	ds	1
  1088   000010                     I2C2_M_Poll@SlaveAddr:
  1089                           	callstack 0
  1090   000010                     I2C_Mem_Write@Size:
  1091                           	callstack 0
  1092   000010                     I2C_Mem_Read@Size:
  1093                           	callstack 0
  1094   000010                     fputs@s:
  1095                           	callstack 0
  1096                           
  1097                           ; 2 bytes @ 0xF
  1098   000010                     	ds	1
  1099   000011                     ??_abs:
  1100   000011                     ___lldiv@counter:
  1101                           	callstack 0
  1102   000011                     I2C2_M_Poll@retval:
  1103                           	callstack 0
  1104                           
  1105                           ; 2 bytes @ 0x10
  1106   000011                     	ds	1
  1107   000012                     fputs@fp:
  1108                           	callstack 0
  1109   000012                     I2C_ModuleStart@clock_output:
  1110                           	callstack 0
  1111   000012                     I2C_Mem_Write@Timeout:
  1112                           	callstack 0
  1113   000012                     I2C_Mem_Read@Timeout:
  1114                           	callstack 0
  1115                           
  1116                           ; 4 bytes @ 0x11
  1117   000012                     	ds	2
  1118   000014                     fputs@c:
  1119                           	callstack 0
  1120                           
  1121                           ; 1 bytes @ 0x13
  1122   000014                     	ds	1
  1123   000015                     fputs@i:
  1124                           	callstack 0
  1125                           
  1126                           ; 2 bytes @ 0x14
  1127   000015                     	ds	1
  1128   000016                     ??_I2C_Mem_Read:
  1129   000016                     I2C_Mem_Write@DevAddress:
  1130                           	callstack 0
  1131                           
  1132                           ; 1 bytes @ 0x15
  1133   000016                     	ds	1
  1134   000017                     I2C_Mem_Write@SlaveAddr:
  1135                           	callstack 0
  1136   000017                     pad@fp:
  1137                           	callstack 0
  1138                           
  1139                           ; 2 bytes @ 0x16
  1140   000017                     	ds	1
  1141   000018                     I2C_Mem_Read@DevAddress:
  1142                           	callstack 0
  1143   000018                     I2C_Mem_Write@retval:
  1144                           	callstack 0
  1145                           
  1146                           ; 2 bytes @ 0x17
  1147   000018                     	ds	1
  1148   000019                     I2C_Mem_Read@SlaveAddr:
  1149                           	callstack 0
  1150   000019                     pad@buf:
  1151                           	callstack 0
  1152                           
  1153                           ; 2 bytes @ 0x18
  1154   000019                     	ds	1
  1155   00001A                     I2C_Mem_Write@i:
  1156                           	callstack 0
  1157   00001A                     I2C_Mem_Read@i:
  1158                           	callstack 0
  1159                           
  1160                           ; 2 bytes @ 0x19
  1161   00001A                     	ds	1
  1162   00001B                     pad@p:
  1163                           	callstack 0
  1164                           
  1165                           ; 2 bytes @ 0x1A
  1166   00001B                     	ds	1
  1167   00001C                     I2C_Mem_Read@retval:
  1168                           	callstack 0
  1169   00001C                     FsScape_set_index_SRAM@address_value:
  1170                           	callstack 0
  1171   00001C                     FsScape_set_index_crc_SRAM@crc_value:
  1172                           	callstack 0
  1173                           
  1174                           ; 4 bytes @ 0x1B
  1175   00001C                     	ds	1
  1176   00001D                     ??_pad:
  1177                           
  1178                           ; 1 bytes @ 0x1C
  1179   00001D                     	ds	1
  1180   00001E                     FsScape_get_index_SRAM@address:
  1181                           	callstack 0
  1182   00001E                     FsScape_get_index_crc_SRAM@crc:
  1183                           	callstack 0
  1184   00001E                     pad@i:
  1185                           	callstack 0
  1186                           
  1187                           ; 2 bytes @ 0x1D
  1188   00001E                     	ds	2
  1189   000020                     ??_FsScape_get_index_SRAM:
  1190   000020                     ??_FsScape_get_index_crc_SRAM:
  1191   000020                     pad@w:
  1192                           	callstack 0
  1193   000020                     FsScape_set_index_SRAM@_address:
  1194                           	callstack 0
  1195   000020                     FsScape_set_index_crc_SRAM@_address:
  1196                           	callstack 0
  1197                           
  1198                           ; 4 bytes @ 0x1F
  1199   000020                     	ds	2
  1200   000022                     dtoa@fp:
  1201                           	callstack 0
  1202   000022                     xtoa@fp:
  1203                           	callstack 0
  1204                           
  1205                           ; 2 bytes @ 0x21
  1206   000022                     	ds	2
  1207   000024                     dtoa@d:
  1208                           	callstack 0
  1209   000024                     xtoa@d:
  1210                           	callstack 0
  1211                           
  1212                           ; 4 bytes @ 0x23
  1213   000024                     	ds	4
  1214   000028                     ??_xtoa:
  1215   000028                     _dtoa$3496:
  1216                           	callstack 0
  1217                           
  1218                           ; 2 bytes @ 0x27
  1219   000028                     	ds	2
  1220   00002A                     dtoa@p:
  1221                           	callstack 0
  1222                           
  1223                           ; 2 bytes @ 0x29
  1224   00002A                     	ds	2
  1225   00002C                     dtoa@w:
  1226                           	callstack 0
  1227   00002C                     xtoa@w:
  1228                           	callstack 0
  1229                           
  1230                           ; 2 bytes @ 0x2B
  1231   00002C                     	ds	2
  1232   00002E                     dtoa@s:
  1233                           	callstack 0
  1234   00002E                     _xtoa$3505:
  1235                           	callstack 0
  1236                           
  1237                           ; 2 bytes @ 0x2D
  1238   00002E                     	ds	1
  1239   00002F                     dtoa@i:
  1240                           	callstack 0
  1241                           
  1242                           ; 2 bytes @ 0x2E
  1243   00002F                     	ds	1
  1244   000030                     xtoa@p:
  1245                           	callstack 0
  1246                           
  1247                           ; 2 bytes @ 0x2F
  1248   000030                     	ds	2
  1249   000032                     xtoa@i:
  1250                           	callstack 0
  1251                           
  1252                           ; 2 bytes @ 0x31
  1253   000032                     	ds	2
  1254   000034                     xtoa@c:
  1255                           	callstack 0
  1256                           
  1257                           ; 1 bytes @ 0x33
  1258   000034                     	ds	1
  1259   000035                     vfpfcnvrt@fp:
  1260                           	callstack 0
  1261                           
  1262                           ; 2 bytes @ 0x34
  1263   000035                     	ds	2
  1264   000037                     vfpfcnvrt@fmt:
  1265                           	callstack 0
  1266                           
  1267                           ; 2 bytes @ 0x36
  1268   000037                     	ds	1
  1269   000038                     FsScape_get_index_SRAM@_address:
  1270                           	callstack 0
  1271   000038                     FsScape_get_index_crc_SRAM@_address:
  1272                           	callstack 0
  1273                           
  1274                           ; 4 bytes @ 0x37
  1275   000038                     	ds	1
  1276   000039                     vfpfcnvrt@ap:
  1277                           	callstack 0
  1278                           
  1279                           ; 2 bytes @ 0x38
  1280   000039                     	ds	2
  1281   00003B                     ??_vfpfcnvrt:
  1282                           
  1283                           ; 1 bytes @ 0x3A
  1284   00003B                     	ds	1
  1285   00003C                     FsScape_get_index_SRAM@value:
  1286                           	callstack 0
  1287   00003C                     FsScape_get_index_crc_SRAM@value:
  1288                           	callstack 0
  1289                           
  1290                           ; 2 bytes @ 0x3B
  1291   00003C                     	ds	3
  1292   00003F                     vfpfcnvrt@convarg:
  1293                           	callstack 0
  1294                           
  1295                           ; 4 bytes @ 0x3E
  1296   00003F                     	ds	4
  1297   000043                     vfpfcnvrt@c:
  1298                           	callstack 0
  1299                           
  1300                           ; 1 bytes @ 0x42
  1301   000043                     	ds	1
  1302   000044                     vfpfcnvrt@cp:
  1303                           	callstack 0
  1304                           
  1305                           ; 2 bytes @ 0x43
  1306   000044                     	ds	2
  1307   000046                     ?_vfprintf:
  1308                           	callstack 0
  1309   000046                     vfprintf@fp:
  1310                           	callstack 0
  1311                           
  1312                           ; 2 bytes @ 0x45
  1313   000046                     	ds	2
  1314   000048                     vfprintf@fmt:
  1315                           	callstack 0
  1316                           
  1317                           ; 2 bytes @ 0x47
  1318   000048                     	ds	2
  1319   00004A                     vfprintf@ap:
  1320                           	callstack 0
  1321                           
  1322                           ; 2 bytes @ 0x49
  1323   00004A                     	ds	2
  1324   00004C                     vfprintf@cfmt:
  1325                           	callstack 0
  1326                           
  1327                           ; 2 bytes @ 0x4B
  1328   00004C                     	ds	2
  1329   00004E                     ?_printf:
  1330                           	callstack 0
  1331   00004E                     printf@fmt:
  1332                           	callstack 0
  1333                           
  1334                           ; 2 bytes @ 0x4D
  1335   00004E                     	ds	6
  1336   000054                     printf@ap:
  1337                           	callstack 0
  1338                           
  1339                           ; 2 bytes @ 0x53
  1340   000054                     	ds	2
  1341   000056                     main@valor:
  1342                           	callstack 0
  1343                           
  1344                           ; 1 bytes @ 0x55
  1345   000056                     	ds	1
  1346                           
  1347 ;;
  1348 ;;Main: autosize = 0, tempsize = 0, incstack = 0, save=0
  1349 ;;
  1350 ;; *************** function _main *****************
  1351 ;; Defined at:
  1352 ;;		line 61 in file "main.c"
  1353 ;; Parameters:    Size  Location     Type
  1354 ;;		None
  1355 ;; Auto vars:     Size  Location     Type
  1356 ;;  valoresrx     254    0[BANK1 ] unsigned char [254]
  1357 ;;  valorestx      11    0[BANK0 ] unsigned char [11]
  1358 ;;  check2          4    0[BANK3 ] volatile unsigned long 
  1359 ;;  adressme2       4   32[BANK0 ] volatile unsigned long 
  1360 ;;  adressme        4   28[BANK0 ] volatile unsigned long 
  1361 ;;  check1          4   24[BANK0 ] volatile unsigned long 
  1362 ;;  adressme3       4   20[BANK0 ] volatile unsigned long 
  1363 ;;  check3          4   11[BANK0 ] volatile unsigned long 
  1364 ;;  endereco_atu    4    0        struct .
  1365 ;;  oldtime         4    0        unsigned long 
  1366 ;;  teste           4    0        unsigned char [4]
  1367 ;;  bus_reset       2   18[BANK0 ] volatile short 
  1368 ;;  temp2           1   17[BANK0 ] volatile unsigned char 
  1369 ;;  temp            1   16[BANK0 ] volatile unsigned char 
  1370 ;;  valor2          1   15[BANK0 ] volatile unsigned char 
  1371 ;;  valor           1   85[COMRAM] volatile unsigned char 
  1372 ;; Return value:  Size  Location     Type
  1373 ;;                  1    wreg      void 
  1374 ;; Registers used:
  1375 ;;		wreg, fsr1l, fsr1h, fsr2l, fsr2h, status,2, status,0, tblptrl, tblptrh, tblptru, cstack
  1376 ;; Tracked objects:
  1377 ;;		On entry : 0/0
  1378 ;;		On exit  : 0/0
  1379 ;;		Unchanged: 0/0
  1380 ;; Data sizes:     COMRAM   BANK0   BANK1   BANK2   BANK3   BANK4   BANK5   BANK6   BANK7   BANK8   BANK9  BANK10  BANK1
      +1  BANK12  BANK13  BANK14  BANK15
  1381 ;;      Params:         0       0       0       0       0       0       0       0       0       0       0       0       
      +0       0       0       0       0
  1382 ;;      Locals:         1      36     254       0       4       0       0       0       0       0       0       0       
      +0       0       0       0       0
  1383 ;;      Temps:          0       0       0       0       0       0       0       0       0       0       0       0       
      +0       0       0       0       0
  1384 ;;      Totals:         1      36     254       0       4       0       0       0       0       0       0       0       
      +0       0       0       0       0
  1385 ;;Total ram usage:      295 bytes
  1386 ;; Hardware stack levels required when called: 12
  1387 ;; This function calls:
  1388 ;;		_FsScape_get_index_SRAM
  1389 ;;		_FsScape_get_index_crc_SRAM
  1390 ;;		_FsScape_set_index_SRAM
  1391 ;;		_FsScape_set_index_crc_SRAM
  1392 ;;		_I2C2_M_BusReset
  1393 ;;		_I2C2_M_Poll
  1394 ;;		_I2C_HWini
  1395 ;;		_I2C_ModuleStart
  1396 ;;		_I2C_ModuleStop
  1397 ;;		_SYSTEM_Initialize
  1398 ;;		_TMR1_SetInterruptHandler
  1399 ;;		_millis
  1400 ;;		_printf
  1401 ;; This function is called by:
  1402 ;;		Startup code after reset
  1403 ;; This function uses a non-reentrant model
  1404 ;;
  1405                           
  1406                           	psect	text0
  1407   000380                     __ptext0:
  1408                           	callstack 0
  1409   000380                     _main:
  1410                           	callstack 19
  1411   000380                     
  1412                           ;main.c: 64:     char valorestx[] = {'a', 'b', 'c', 'd', 'e', 'f', 'g', 'h', 'i', 'j', '
      +                          k'};
  1413   000380  EE20  F0F0         	lfsr	2,main@F6383
  1414   000384  EE10  F0CC         	lfsr	1,main@valorestx
  1415   000388  0E0A               	movlw	10
  1416   00038A                     u5401:
  1417   00038A  CFDB FFE3          	movff	plusw2,plusw1
  1418   00038E  06E8               	decf	wreg,f,c
  1419   000390  E2FC               	bc	u5401
  1420   000392                     
  1421                           ;main.c: 65:     uint8_t valoresrx[254] = {0};
  1422   000392  EE21  F000         	lfsr	2,main@valoresrx
  1423   000396  0EFD               	movlw	253
  1424   000398                     u5411:
  1425   000398  6ADE               	clrf	postinc2,c
  1426   00039A  06E8               	decf	wreg,f,c
  1427   00039C  E2FD               	bc	u5411
  1428   00039E                     
  1429                           ;main.c: 66:     volatile uint8_t valor = 0;
  1430   00039E  0E00               	movlw	0
  1431   0003A0  6E56               	movwf	main@valor^0,c	;volatile
  1432   0003A2                     
  1433                           ;main.c: 67:     volatile uint8_t valor2 = 0;
  1434   0003A2  0E00               	movlw	0
  1435   0003A4  0100               	movlb	0	; () banked
  1436   0003A6  6FDB               	movwf	main@valor2& (0+255),b	;volatile
  1437   0003A8                     
  1438                           ; BSR set to: 0
  1439                           ;main.c: 68:     volatile int16_t bus_reset;;main.c: 69:     volatile uint8_t temp = 0;
  1440   0003A8  0E00               	movlw	0
  1441   0003AA  6FDC               	movwf	main@temp& (0+255),b	;volatile
  1442   0003AC                     
  1443                           ; BSR set to: 0
  1444                           ;main.c: 70:     volatile uint8_t temp2 = 0;
  1445   0003AC  0E00               	movlw	0
  1446   0003AE  6FDD               	movwf	main@temp2& (0+255),b	;volatile
  1447   0003B0                     
  1448                           ; BSR set to: 0
  1449                           ;main.c: 73:     SYSTEM_Initialize();
  1450   0003B0  ECB2  F00C         	call	_SYSTEM_Initialize	;wreg free
  1451   0003B4  8A8A               	bsf	138,5,c	;volatile
  1452   0003B6                     
  1453                           ;main.c: 76:     TMR1_SetInterruptHandler(increment_interrupt);
  1454   0003B6  0EBE               	movlw	low _increment_interrupt
  1455   0003B8  6E05               	movwf	TMR1_SetInterruptHandler@InterruptHandler^0,c
  1456   0003BA  0E19               	movlw	high _increment_interrupt
  1457   0003BC  6E06               	movwf	(TMR1_SetInterruptHandler@InterruptHandler+1)^0,c
  1458   0003BE  ECF9  F00C         	call	_TMR1_SetInterruptHandler	;wreg free
  1459   0003C2                     
  1460                           ;main.c: 80:     RCONbits.SBOREN = 0;
  1461   0003C2  9CD0               	bcf	208,6,c	;volatile
  1462   0003C4                     
  1463                           ;main.c: 89:     (INTCONbits.GIE = 1);
  1464   0003C4  8EF2               	bsf	242,7,c	;volatile
  1465   0003C6                     
  1466                           ;main.c: 95:     (INTCONbits.PEIE = 1);
  1467   0003C6  8CF2               	bsf	242,6,c	;volatile
  1468   0003C8                     
  1469                           ;main.c: 104:     uint8_t teste[4];;main.c: 105:     volatile uint32_t adressme = 0;
  1470   0003C8  0E00               	movlw	0
  1471   0003CA  0100               	movlb	0	; () banked
  1472   0003CC  6FE8               	movwf	main@adressme& (0+255),b	;volatile
  1473   0003CE  0E00               	movlw	0
  1474   0003D0  6FE9               	movwf	(main@adressme+1)& (0+255),b	;volatile
  1475   0003D2  0E00               	movlw	0
  1476   0003D4  6FEA               	movwf	(main@adressme+2)& (0+255),b	;volatile
  1477   0003D6  0E00               	movlw	0
  1478   0003D8  6FEB               	movwf	(main@adressme+3)& (0+255),b	;volatile
  1479   0003DA                     
  1480                           ; BSR set to: 0
  1481                           ;main.c: 106:     volatile uint32_t adressme2 = 0;
  1482   0003DA  0E00               	movlw	0
  1483   0003DC  6FEC               	movwf	main@adressme2& (0+255),b	;volatile
  1484   0003DE  0E00               	movlw	0
  1485   0003E0  6FED               	movwf	(main@adressme2+1)& (0+255),b	;volatile
  1486   0003E2  0E00               	movlw	0
  1487   0003E4  6FEE               	movwf	(main@adressme2+2)& (0+255),b	;volatile
  1488   0003E6  0E00               	movlw	0
  1489   0003E8  6FEF               	movwf	(main@adressme2+3)& (0+255),b	;volatile
  1490   0003EA                     
  1491                           ; BSR set to: 0
  1492                           ;main.c: 107:     volatile uint32_t adressme3 = 0;
  1493   0003EA  0E00               	movlw	0
  1494   0003EC  6FE0               	movwf	main@adressme3& (0+255),b	;volatile
  1495   0003EE  0E00               	movlw	0
  1496   0003F0  6FE1               	movwf	(main@adressme3+1)& (0+255),b	;volatile
  1497   0003F2  0E00               	movlw	0
  1498   0003F4  6FE2               	movwf	(main@adressme3+2)& (0+255),b	;volatile
  1499   0003F6  0E00               	movlw	0
  1500   0003F8  6FE3               	movwf	(main@adressme3+3)& (0+255),b	;volatile
  1501   0003FA                     
  1502                           ; BSR set to: 0
  1503                           ;main.c: 108:     volatile uint32_t check1 = 0;
  1504   0003FA  0E00               	movlw	0
  1505   0003FC  6FE4               	movwf	main@check1& (0+255),b	;volatile
  1506   0003FE  0E00               	movlw	0
  1507   000400  6FE5               	movwf	(main@check1+1)& (0+255),b	;volatile
  1508   000402  0E00               	movlw	0
  1509   000404  6FE6               	movwf	(main@check1+2)& (0+255),b	;volatile
  1510   000406  0E00               	movlw	0
  1511   000408  6FE7               	movwf	(main@check1+3)& (0+255),b	;volatile
  1512   00040A                     
  1513                           ; BSR set to: 0
  1514                           ;main.c: 109:     volatile uint32_t check2 = 0;
  1515   00040A  0E00               	movlw	0
  1516   00040C  0103               	movlb	3	; () banked
  1517   00040E  6F00               	movwf	main@check2& (0+255),b	;volatile
  1518   000410  0E00               	movlw	0
  1519   000412  6F01               	movwf	(main@check2+1)& (0+255),b	;volatile
  1520   000414  0E00               	movlw	0
  1521   000416  6F02               	movwf	(main@check2+2)& (0+255),b	;volatile
  1522   000418  0E00               	movlw	0
  1523   00041A  6F03               	movwf	(main@check2+3)& (0+255),b	;volatile
  1524   00041C                     
  1525                           ; BSR set to: 3
  1526                           ;main.c: 110:     volatile uint32_t check3 = 0;
  1527   00041C  0E00               	movlw	0
  1528   00041E  0100               	movlb	0	; () banked
  1529   000420  6FD7               	movwf	main@check3& (0+255),b	;volatile
  1530   000422  0E00               	movlw	0
  1531   000424  6FD8               	movwf	(main@check3+1)& (0+255),b	;volatile
  1532   000426  0E00               	movlw	0
  1533   000428  6FD9               	movwf	(main@check3+2)& (0+255),b	;volatile
  1534   00042A  0E00               	movlw	0
  1535   00042C  6FDA               	movwf	(main@check3+3)& (0+255),b	;volatile
  1536   00042E                     
  1537                           ; BSR set to: 0
  1538   00042E  EC9F  F00C         	call	_millis	;wreg free
  1539   000432                     
  1540                           ;main.c: 114:     printf("Sistema Iniciado\n");
  1541   000432  0EED               	movlw	low STR_1
  1542   000434  6E4E               	movwf	printf@fmt^0,c
  1543   000436  0EFF               	movlw	high STR_1
  1544   000438  6E4F               	movwf	(printf@fmt+1)^0,c
  1545   00043A  EC8C  F00C         	call	_printf	;wreg free
  1546   00043E                     
  1547                           ;main.c: 117:     I2C_HWini();
  1548   00043E  EC11  F00D         	call	_I2C_HWini	;wreg free
  1549   000442                     
  1550                           ;main.c: 118:     I2C_ModuleStart(400000UL);
  1551   000442  0E80               	movlw	128
  1552   000444  6E12               	movwf	I2C_ModuleStart@clock_output^0,c
  1553   000446  0E1A               	movlw	26
  1554   000448  6E13               	movwf	(I2C_ModuleStart@clock_output+1)^0,c
  1555   00044A  0E06               	movlw	6
  1556   00044C  6E14               	movwf	(I2C_ModuleStart@clock_output+2)^0,c
  1557   00044E  0E00               	movlw	0
  1558   000450  6E15               	movwf	(I2C_ModuleStart@clock_output+3)^0,c
  1559   000452  ECEA  F00A         	call	_I2C_ModuleStart	;wreg free
  1560   000456                     
  1561                           ;main.c: 119:     bus_reset = I2C2_M_BusReset();
  1562   000456  ECEA  F008         	call	_I2C2_M_BusReset	;wreg free
  1563   00045A  C005  F0DE         	movff	?_I2C2_M_BusReset,main@bus_reset	;volatile
  1564   00045E  C006  F0DF         	movff	?_I2C2_M_BusReset+1,main@bus_reset+1	;volatile
  1565   000462                     
  1566                           ;main.c: 120:     printf("Init i2c bus_reset: %i\n", bus_reset);
  1567   000462  0ED5               	movlw	low STR_2
  1568   000464  6E4E               	movwf	printf@fmt^0,c
  1569   000466  0EFF               	movlw	high STR_2
  1570   000468  6E4F               	movwf	(printf@fmt+1)^0,c
  1571   00046A  C0DE  F050         	movff	main@bus_reset,?_printf+2	;volatile
  1572   00046E  C0DF  F051         	movff	main@bus_reset+1,?_printf+3	;volatile
  1573   000472  EC8C  F00C         	call	_printf	;wreg free
  1574   000476                     
  1575                           ;main.c: 123:     if(I2C2_M_Poll(0xDE) == 0)
  1576   000476  0EDE               	movlw	222
  1577   000478  EC85  F008         	call	_I2C2_M_Poll
  1578   00047C  500D               	movf	?_I2C2_M_Poll^0,w,c
  1579   00047E  100E               	iorwf	(?_I2C2_M_Poll+1)^0,w,c
  1580   000480  A4D8               	btfss	status,2,c
  1581   000482  EF45  F002         	goto	u5421
  1582   000486  EF47  F002         	goto	u5420
  1583   00048A                     u5421:
  1584   00048A  EF4F  F002         	goto	l7742
  1585   00048E                     u5420:
  1586   00048E                     
  1587                           ;main.c: 124:     {;main.c: 125:         printf("O sistema identificou a memoria SRAM!!!
      +                          \n");
  1588   00048E  0ED5               	movlw	low STR_3
  1589   000490  6E4E               	movwf	printf@fmt^0,c
  1590   000492  0EFE               	movlw	high STR_3
  1591   000494  6E4F               	movwf	(printf@fmt+1)^0,c
  1592   000496  EC8C  F00C         	call	_printf	;wreg free
  1593                           
  1594                           ;main.c: 126:     }
  1595   00049A  EF55  F002         	goto	l840
  1596   00049E                     l7742:
  1597                           
  1598                           ;main.c: 128:     {;main.c: 129:         printf("Ha algo de errado com a memoria SRAM!!!
      +                          \n");
  1599   00049E  0EAC               	movlw	low STR_4
  1600   0004A0  6E4E               	movwf	printf@fmt^0,c
  1601   0004A2  0EFE               	movlw	high STR_4
  1602   0004A4  6E4F               	movwf	(printf@fmt+1)^0,c
  1603   0004A6  EC8C  F00C         	call	_printf	;wreg free
  1604   0004AA                     l840:
  1605                           
  1606                           ;main.c: 150:     printf("Verificando o ponteiro de enderecamento...\n");
  1607   0004AA  0E80               	movlw	low STR_5
  1608   0004AC  6E4E               	movwf	printf@fmt^0,c
  1609   0004AE  0EFE               	movlw	high STR_5
  1610   0004B0  6E4F               	movwf	(printf@fmt+1)^0,c
  1611   0004B2  EC8C  F00C         	call	_printf	;wreg free
  1612   0004B6                     
  1613                           ;main.c: 151:     FsScape_get_index_SRAM(&adressme);
  1614   0004B6  0EE8               	movlw	low main@adressme
  1615   0004B8  6E1E               	movwf	FsScape_get_index_SRAM@address^0,c
  1616   0004BA  0E00               	movlw	high main@adressme
  1617   0004BC  6E1F               	movwf	(FsScape_get_index_SRAM@address+1)^0,c
  1618   0004BE  ECCC  F006         	call	_FsScape_get_index_SRAM	;wreg free
  1619   0004C2                     
  1620                           ;main.c: 152:     printf("O ponteiro encontrado foi: 0x%lX\n", adressme);
  1621   0004C2  0E47               	movlw	low STR_6
  1622   0004C4  6E4E               	movwf	printf@fmt^0,c
  1623   0004C6  0EFF               	movlw	high STR_6
  1624   0004C8  6E4F               	movwf	(printf@fmt+1)^0,c
  1625   0004CA  C0E8  F050         	movff	main@adressme,?_printf+2	;volatile
  1626   0004CE  C0E9  F051         	movff	main@adressme+1,?_printf+3	;volatile
  1627   0004D2  C0EA  F052         	movff	main@adressme+2,?_printf+4	;volatile
  1628   0004D6  C0EB  F053         	movff	main@adressme+3,?_printf+5	;volatile
  1629   0004DA  EC8C  F00C         	call	_printf	;wreg free
  1630   0004DE                     
  1631                           ;main.c: 154:     printf("Alterando o endereço para: 0x12564789\n");
  1632   0004DE  0EFE               	movlw	low STR_7
  1633   0004E0  6E4E               	movwf	printf@fmt^0,c
  1634   0004E2  0EFE               	movlw	high STR_7
  1635   0004E4  6E4F               	movwf	(printf@fmt+1)^0,c
  1636   0004E6  EC8C  F00C         	call	_printf	;wreg free
  1637   0004EA                     
  1638                           ;main.c: 155:     adressme3 = 0x12564789;
  1639   0004EA  0E89               	movlw	137
  1640   0004EC  0100               	movlb	0	; () banked
  1641   0004EE  6FE0               	movwf	main@adressme3& (0+255),b	;volatile
  1642   0004F0  0E47               	movlw	71
  1643   0004F2  6FE1               	movwf	(main@adressme3+1)& (0+255),b	;volatile
  1644   0004F4  0E56               	movlw	86
  1645   0004F6  6FE2               	movwf	(main@adressme3+2)& (0+255),b	;volatile
  1646   0004F8  0E12               	movlw	18
  1647   0004FA  6FE3               	movwf	(main@adressme3+3)& (0+255),b	;volatile
  1648   0004FC                     
  1649                           ; BSR set to: 0
  1650                           ;main.c: 156:     FsScape_set_index_SRAM(adressme3);
  1651   0004FC  C0E0  F01C         	movff	main@adressme3,FsScape_set_index_SRAM@address_value	;volatile
  1652   000500  C0E1  F01D         	movff	main@adressme3+1,FsScape_set_index_SRAM@address_value+1	;volatile
  1653   000504  C0E2  F01E         	movff	main@adressme3+2,FsScape_set_index_SRAM@address_value+2	;volatile
  1654   000508  C0E3  F01F         	movff	main@adressme3+3,FsScape_set_index_SRAM@address_value+3	;volatile
  1655   00050C  EC8B  F00B         	call	_FsScape_set_index_SRAM	;wreg free
  1656   000510                     
  1657                           ;main.c: 159:     printf("Verificando o novo ponteiro\n");
  1658   000510  0E86               	movlw	low STR_8
  1659   000512  6E4E               	movwf	printf@fmt^0,c
  1660   000514  0EFF               	movlw	high STR_8
  1661   000516  6E4F               	movwf	(printf@fmt+1)^0,c
  1662   000518  EC8C  F00C         	call	_printf	;wreg free
  1663   00051C                     
  1664                           ;main.c: 160:     FsScape_get_index_SRAM(&adressme2);
  1665   00051C  0EEC               	movlw	low main@adressme2
  1666   00051E  6E1E               	movwf	FsScape_get_index_SRAM@address^0,c
  1667   000520  0E00               	movlw	high main@adressme2
  1668   000522  6E1F               	movwf	(FsScape_get_index_SRAM@address+1)^0,c
  1669   000524  ECCC  F006         	call	_FsScape_get_index_SRAM	;wreg free
  1670   000528                     
  1671                           ;main.c: 161:     printf("O ponteiro encontrado foi: 0x%lX\n", adressme2);
  1672   000528  0E47               	movlw	low STR_6
  1673   00052A  6E4E               	movwf	printf@fmt^0,c
  1674   00052C  0EFF               	movlw	high STR_6
  1675   00052E  6E4F               	movwf	(printf@fmt+1)^0,c
  1676   000530  C0EC  F050         	movff	main@adressme2,?_printf+2	;volatile
  1677   000534  C0ED  F051         	movff	main@adressme2+1,?_printf+3	;volatile
  1678   000538  C0EE  F052         	movff	main@adressme2+2,?_printf+4	;volatile
  1679   00053C  C0EF  F053         	movff	main@adressme2+3,?_printf+5	;volatile
  1680   000540  EC8C  F00C         	call	_printf	;wreg free
  1681   000544                     
  1682                           ;main.c: 165:     printf("Alterando o crc para: 0x12564789\n");
  1683   000544  0E25               	movlw	low STR_10
  1684   000546  6E4E               	movwf	printf@fmt^0,c
  1685   000548  0EFF               	movlw	high STR_10
  1686   00054A  6E4F               	movwf	(printf@fmt+1)^0,c
  1687   00054C  EC8C  F00C         	call	_printf	;wreg free
  1688   000550                     
  1689                           ;main.c: 166:     check1 = 0x12564789;
  1690   000550  0E89               	movlw	137
  1691   000552  0100               	movlb	0	; () banked
  1692   000554  6FE4               	movwf	main@check1& (0+255),b	;volatile
  1693   000556  0E47               	movlw	71
  1694   000558  6FE5               	movwf	(main@check1+1)& (0+255),b	;volatile
  1695   00055A  0E56               	movlw	86
  1696   00055C  6FE6               	movwf	(main@check1+2)& (0+255),b	;volatile
  1697   00055E  0E12               	movlw	18
  1698   000560  6FE7               	movwf	(main@check1+3)& (0+255),b	;volatile
  1699                           
  1700                           ;main.c: 167:     FsScape_set_index_crc_SRAM(check1);
  1701   000562  C0E4  F01C         	movff	main@check1,FsScape_set_index_crc_SRAM@crc_value	;volatile
  1702   000566  C0E5  F01D         	movff	main@check1+1,FsScape_set_index_crc_SRAM@crc_value+1	;volatile
  1703   00056A  C0E6  F01E         	movff	main@check1+2,FsScape_set_index_crc_SRAM@crc_value+2	;volatile
  1704   00056E  C0E7  F01F         	movff	main@check1+3,FsScape_set_index_crc_SRAM@crc_value+3	;volatile
  1705   000572  EC67  F00B         	call	_FsScape_set_index_crc_SRAM	;wreg free
  1706   000576                     
  1707                           ;main.c: 169:     printf("Verificando o novo crc\n");
  1708   000576  0EBD               	movlw	low STR_11
  1709   000578  6E4E               	movwf	printf@fmt^0,c
  1710   00057A  0EFF               	movlw	high STR_11
  1711   00057C  6E4F               	movwf	(printf@fmt+1)^0,c
  1712   00057E  EC8C  F00C         	call	_printf	;wreg free
  1713   000582                     
  1714                           ;main.c: 170:     FsScape_get_index_crc_SRAM(&check2);
  1715   000582  0E00               	movlw	low main@check2
  1716   000584  6E1E               	movwf	FsScape_get_index_crc_SRAM@crc^0,c
  1717   000586  0E03               	movlw	high main@check2
  1718   000588  6E1F               	movwf	(FsScape_get_index_crc_SRAM@crc+1)^0,c
  1719   00058A  EC55  F006         	call	_FsScape_get_index_crc_SRAM	;wreg free
  1720                           
  1721                           ;main.c: 171:     printf("O crc encontrado foi: 0x%lX\n", check2);
  1722   00058E  0E69               	movlw	low STR_12
  1723   000590  6E4E               	movwf	printf@fmt^0,c
  1724   000592  0EFF               	movlw	high STR_12
  1725   000594  6E4F               	movwf	(printf@fmt+1)^0,c
  1726   000596  C300  F050         	movff	main@check2,?_printf+2	;volatile
  1727   00059A  C301  F051         	movff	main@check2+1,?_printf+3	;volatile
  1728   00059E  C302  F052         	movff	main@check2+2,?_printf+4	;volatile
  1729   0005A2  C303  F053         	movff	main@check2+3,?_printf+5	;volatile
  1730   0005A6  EC8C  F00C         	call	_printf	;wreg free
  1731   0005AA                     
  1732                           ;main.c: 174:     I2C_ModuleStop();
  1733   0005AA  EC16  F00D         	call	_I2C_ModuleStop	;wreg free
  1734   0005AE                     l841:
  1735   0005AE  EFD7  F002         	goto	l841
  1736   0005B2  EF26  F000         	goto	start
  1737   0005B6                     __end_of_main:
  1738                           	callstack 0
  1739                           
  1740 ;; *************** function _printf *****************
  1741 ;; Defined at:
  1742 ;;		line 5 in file "C:\Program Files\Microchip\xc8\v2.41\pic\sources\c99\common\printf.c"
  1743 ;; Parameters:    Size  Location     Type
  1744 ;;  fmt             2   77[COMRAM] PTR const unsigned char 
  1745 ;;		 -> STR_13(26), STR_12(29), STR_11(24), STR_10(34), 
  1746 ;;		 -> STR_9(34), STR_8(29), STR_7(39), STR_6(34), 
  1747 ;;		 -> STR_5(44), STR_4(41), STR_3(41), STR_2(24), 
  1748 ;;		 -> STR_1(18), 
  1749 ;; Auto vars:     Size  Location     Type
  1750 ;;  ap              2   83[COMRAM] PTR void [1]
  1751 ;;		 -> ?_printf(2), 
  1752 ;;  ret             2    0        int 
  1753 ;; Return value:  Size  Location     Type
  1754 ;;                  2   77[COMRAM] int 
  1755 ;; Registers used:
  1756 ;;		wreg, fsr1l, fsr1h, fsr2l, fsr2h, status,2, status,0, tblptrl, tblptrh, tblptru, cstack
  1757 ;; Tracked objects:
  1758 ;;		On entry : 0/0
  1759 ;;		On exit  : 0/0
  1760 ;;		Unchanged: 0/0
  1761 ;; Data sizes:     COMRAM   BANK0   BANK1   BANK2   BANK3   BANK4   BANK5   BANK6   BANK7   BANK8   BANK9  BANK10  BANK1
      +1  BANK12  BANK13  BANK14  BANK15
  1762 ;;      Params:         6       0       0       0       0       0       0       0       0       0       0       0       
      +0       0       0       0       0
  1763 ;;      Locals:         2       0       0       0       0       0       0       0       0       0       0       0       
      +0       0       0       0       0
  1764 ;;      Temps:          0       0       0       0       0       0       0       0       0       0       0       0       
      +0       0       0       0       0
  1765 ;;      Totals:         8       0       0       0       0       0       0       0       0       0       0       0       
      +0       0       0       0       0
  1766 ;;Total ram usage:        8 bytes
  1767 ;; Hardware stack levels used: 1
  1768 ;; Hardware stack levels required when called: 11
  1769 ;; This function calls:
  1770 ;;		_vfprintf
  1771 ;; This function is called by:
  1772 ;;		_main
  1773 ;;		_I2C2_M_Write
  1774 ;; This function uses a non-reentrant model
  1775 ;;
  1776                           
  1777                           	psect	text1
  1778   001918                     __ptext1:
  1779                           	callstack 0
  1780   001918                     _printf:
  1781                           	callstack 19
  1782   001918  0E50               	movlw	low (?_printf+2)
  1783   00191A  6E54               	movwf	printf@ap^0,c
  1784   00191C  0E00               	movlw	high (?_printf+2)
  1785   00191E  6E55               	movwf	(printf@ap+1)^0,c
  1786   001920  0E00               	movlw	0
  1787   001922  6E46               	movwf	vfprintf@fp^0,c
  1788   001924  0E00               	movlw	0
  1789   001926  6E47               	movwf	(vfprintf@fp+1)^0,c
  1790   001928  C04E  F048         	movff	printf@fmt,vfprintf@fmt
  1791   00192C  C04F  F049         	movff	printf@fmt+1,vfprintf@fmt+1
  1792   001930  0E54               	movlw	low printf@ap
  1793   001932  6E4A               	movwf	vfprintf@ap^0,c
  1794   001934  0E00               	movlw	high printf@ap
  1795   001936  6E4B               	movwf	(vfprintf@ap+1)^0,c
  1796   001938  EC1A  F00B         	call	_vfprintf	;wreg free
  1797   00193C  0012               	return		;funcret
  1798   00193E                     __end_of_printf:
  1799                           	callstack 0
  1800                           
  1801 ;; *************** function _vfprintf *****************
  1802 ;; Defined at:
  1803 ;;		line 1546 in file "C:\Program Files\Microchip\xc8\v2.41\pic\sources\c99\common\doprnt.c"
  1804 ;; Parameters:    Size  Location     Type
  1805 ;;  fp              2   69[COMRAM] PTR struct _IO_FILE
  1806 ;;		 -> NULL(0), 
  1807 ;;  fmt             2   71[COMRAM] PTR const unsigned char 
  1808 ;;		 -> STR_13(26), STR_12(29), STR_11(24), STR_10(34), 
  1809 ;;		 -> STR_9(34), STR_8(29), STR_7(39), STR_6(34), 
  1810 ;;		 -> STR_5(44), STR_4(41), STR_3(41), STR_2(24), 
  1811 ;;		 -> STR_1(18), 
  1812 ;;  ap              2   73[COMRAM] PTR PTR void 
  1813 ;;		 -> printf@ap(2), 
  1814 ;; Auto vars:     Size  Location     Type
  1815 ;;  cfmt            2   75[COMRAM] PTR unsigned char 
  1816 ;;		 -> STR_13(26), STR_12(29), STR_11(24), STR_10(34), 
  1817 ;;		 -> STR_9(34), STR_8(29), STR_7(39), STR_6(34), 
  1818 ;;		 -> STR_5(44), STR_4(41), STR_3(41), STR_2(24), 
  1819 ;;		 -> STR_1(18), 
  1820 ;; Return value:  Size  Location     Type
  1821 ;;                  2   69[COMRAM] int 
  1822 ;; Registers used:
  1823 ;;		wreg, fsr1l, fsr1h, fsr2l, fsr2h, status,2, status,0, tblptrl, tblptrh, tblptru, cstack
  1824 ;; Tracked objects:
  1825 ;;		On entry : 0/0
  1826 ;;		On exit  : 0/0
  1827 ;;		Unchanged: 0/0
  1828 ;; Data sizes:     COMRAM   BANK0   BANK1   BANK2   BANK3   BANK4   BANK5   BANK6   BANK7   BANK8   BANK9  BANK10  BANK1
      +1  BANK12  BANK13  BANK14  BANK15
  1829 ;;      Params:         6       0       0       0       0       0       0       0       0       0       0       0       
      +0       0       0       0       0
  1830 ;;      Locals:         2       0       0       0       0       0       0       0       0       0       0       0       
      +0       0       0       0       0
  1831 ;;      Temps:          0       0       0       0       0       0       0       0       0       0       0       0       
      +0       0       0       0       0
  1832 ;;      Totals:         8       0       0       0       0       0       0       0       0       0       0       0       
      +0       0       0       0       0
  1833 ;;Total ram usage:        8 bytes
  1834 ;; Hardware stack levels used: 1
  1835 ;; Hardware stack levels required when called: 10
  1836 ;; This function calls:
  1837 ;;		_vfpfcnvrt
  1838 ;; This function is called by:
  1839 ;;		_printf
  1840 ;; This function uses a non-reentrant model
  1841 ;;
  1842                           
  1843                           	psect	text2
  1844   001634                     __ptext2:
  1845                           	callstack 0
  1846   001634                     _vfprintf:
  1847                           	callstack 19
  1848   001634                     
  1849                           ;C:\Program Files\Microchip\xc8\v2.41\pic\sources\c99\common\doprnt.c: 1546: int vfprint
      +                          f(FILE *fp, const char *fmt, va_list ap);C:\Program Files\Microchip\xc8\v2.41\pic\source
      +                          s\c99\common\doprnt.c: 1547: {;C:\Program Files\Microchip\xc8\v2.41\pic\sources\c99\comm
      +                          on\doprnt.c: 1549:     char *cfmt;;C:\Program Files\Microchip\xc8\v2.41\pic\sources\c99\
      +                          common\doprnt.c: 1551:     cfmt = (char *)fmt;
  1850   001634  C048  F04C         	movff	vfprintf@fmt,vfprintf@cfmt
  1851   001638  C049  F04D         	movff	vfprintf@fmt+1,vfprintf@cfmt+1
  1852                           
  1853                           ;C:\Program Files\Microchip\xc8\v2.41\pic\sources\c99\common\doprnt.c: 1555:     while (
      +                          *cfmt) {
  1854   00163C  EF2E  F00B         	goto	l7564
  1855   001640                     l7562:
  1856                           
  1857                           ;C:\Program Files\Microchip\xc8\v2.41\pic\sources\c99\common\doprnt.c: 1559:    vfpfcnvr
      +                          t(fp, &cfmt, ap);
  1858   001640  C046  F035         	movff	vfprintf@fp,vfpfcnvrt@fp
  1859   001644  C047  F036         	movff	vfprintf@fp+1,vfpfcnvrt@fp+1
  1860   001648  0E4C               	movlw	low vfprintf@cfmt
  1861   00164A  6E37               	movwf	vfpfcnvrt@fmt^0,c
  1862   00164C  0E00               	movlw	high vfprintf@cfmt
  1863   00164E  6E38               	movwf	(vfpfcnvrt@fmt+1)^0,c
  1864   001650  C04A  F039         	movff	vfprintf@ap,vfpfcnvrt@ap
  1865   001654  C04B  F03A         	movff	vfprintf@ap+1,vfpfcnvrt@ap+1
  1866   001658  EC28  F000         	call	_vfpfcnvrt	;wreg free
  1867   00165C                     l7564:
  1868                           
  1869                           ;C:\Program Files\Microchip\xc8\v2.41\pic\sources\c99\common\doprnt.c: 1555:     while (
      +                          *cfmt) {
  1870   00165C  C04C  FFF6         	movff	vfprintf@cfmt,tblptrl
  1871   001660  C04D  FFF7         	movff	vfprintf@cfmt+1,tblptrh
  1872   001664                     	if	1	;Program memory is < 0x10000, tblptru is always zero
  1873   001664  6AF8               	clrf	tblptru,c
  1874   001666                     	endif
  1875   001666                     	if	0	;tblptru may be non-zero
  1876   001666                     	endif
  1877   001666  0008               	tblrd		*
  1878   001668  50F5               	movf	tablat,w,c
  1879   00166A  0900               	iorlw	0
  1880   00166C  A4D8               	btfss	status,2,c
  1881   00166E  EF3B  F00B         	goto	u5301
  1882   001672  EF3D  F00B         	goto	u5300
  1883   001676                     u5301:
  1884   001676  EF20  F00B         	goto	l7562
  1885   00167A                     u5300:
  1886   00167A                     
  1887                           ;C:\Program Files\Microchip\xc8\v2.41\pic\sources\c99\common\doprnt.c: 1564:  return 0;
  1888   00167A  0E00               	movlw	0
  1889   00167C  6E47               	movwf	(?_vfprintf+1)^0,c
  1890   00167E  0E00               	movlw	0
  1891   001680  6E46               	movwf	?_vfprintf^0,c
  1892   001682  0012               	return		;funcret
  1893   001684                     __end_of_vfprintf:
  1894                           	callstack 0
  1895                           
  1896 ;; *************** function _vfpfcnvrt *****************
  1897 ;; Defined at:
  1898 ;;		line 1048 in file "C:\Program Files\Microchip\xc8\v2.41\pic\sources\c99\common\doprnt.c"
  1899 ;; Parameters:    Size  Location     Type
  1900 ;;  fp              2   52[COMRAM] PTR struct _IO_FILE
  1901 ;;		 -> NULL(0), 
  1902 ;;  fmt             2   54[COMRAM] PTR PTR unsigned char 
  1903 ;;		 -> vfprintf@cfmt(2), 
  1904 ;;  ap              2   56[COMRAM] PTR PTR void 
  1905 ;;		 -> printf@ap(2), 
  1906 ;; Auto vars:     Size  Location     Type
  1907 ;;  convarg         4   62[COMRAM] struct .
  1908 ;;  cp              2   67[COMRAM] PTR unsigned char 
  1909 ;;		 -> STR_13(26), STR_12(29), STR_11(24), STR_10(34), 
  1910 ;;		 -> STR_9(34), STR_8(29), STR_7(39), STR_6(34), 
  1911 ;;		 -> STR_5(44), STR_4(41), STR_3(41), STR_2(24), 
  1912 ;;		 -> STR_1(18), 
  1913 ;;  i               2    0        int 
  1914 ;;  done            2    0        int 
  1915 ;;  c               1   66[COMRAM] unsigned char 
  1916 ;; Return value:  Size  Location     Type
  1917 ;;                  1    wreg      void 
  1918 ;; Registers used:
  1919 ;;		wreg, fsr1l, fsr1h, fsr2l, fsr2h, status,2, status,0, tblptrl, tblptrh, tblptru, cstack
  1920 ;; Tracked objects:
  1921 ;;		On entry : 0/0
  1922 ;;		On exit  : 0/0
  1923 ;;		Unchanged: 0/0
  1924 ;; Data sizes:     COMRAM   BANK0   BANK1   BANK2   BANK3   BANK4   BANK5   BANK6   BANK7   BANK8   BANK9  BANK10  BANK1
      +1  BANK12  BANK13  BANK14  BANK15
  1925 ;;      Params:         6       0       0       0       0       0       0       0       0       0       0       0       
      +0       0       0       0       0
  1926 ;;      Locals:         7       0       0       0       0       0       0       0       0       0       0       0       
      +0       0       0       0       0
  1927 ;;      Temps:          4       0       0       0       0       0       0       0       0       0       0       0       
      +0       0       0       0       0
  1928 ;;      Totals:        17       0       0       0       0       0       0       0       0       0       0       0       
      +0       0       0       0       0
  1929 ;;Total ram usage:       17 bytes
  1930 ;; Hardware stack levels used: 1
  1931 ;; Hardware stack levels required when called: 9
  1932 ;; This function calls:
  1933 ;;		_dtoa
  1934 ;;		_fputc
  1935 ;;		_xtoa
  1936 ;; This function is called by:
  1937 ;;		_vfprintf
  1938 ;; This function uses a non-reentrant model
  1939 ;;
  1940                           
  1941                           	psect	text3
  1942   000050                     __ptext3:
  1943                           	callstack 0
  1944   000050                     _vfpfcnvrt:
  1945                           	callstack 19
  1946   000050                     
  1947                           ;C:\Program Files\Microchip\xc8\v2.41\pic\sources\c99\common\doprnt.c: 1048: vfpfcnvrt(F
      +                          ILE *fp, char *fmt[], va_list ap);C:\Program Files\Microchip\xc8\v2.41\pic\sources\c99\c
      +                          ommon\doprnt.c: 1049: {;C:\Program Files\Microchip\xc8\v2.41\pic\sources\c99\common\dopr
      +                          nt.c: 1050:     char c, *cp;;C:\Program Files\Microchip\xc8\v2.41\pic\sources\c99\common
      +                          \doprnt.c: 1051:     int done, i;;C:\Program Files\Microchip\xc8\v2.41\pic\sources\c99\c
      +                          ommon\doprnt.c: 1059:  } convarg;;C:\Program Files\Microchip\xc8\v2.41\pic\sources\c99\c
      +                          ommon\doprnt.c: 1062:     if ((*fmt)[0] == '%') {
  1948   000050  C037  FFD9         	movff	vfpfcnvrt@fmt,fsr2l
  1949   000054  C038  FFDA         	movff	vfpfcnvrt@fmt+1,fsr2h
  1950   000058  CFDE FFF6          	movff	postinc2,tblptrl
  1951   00005C  CFDD FFF7          	movff	postdec2,tblptrh
  1952   000060                     	if	1	;Program memory is < 0x10000, tblptru is always zero
  1953   000060  6AF8               	clrf	tblptru,c
  1954   000062                     	endif
  1955   000062                     	if	0	;tblptru may be non-zero
  1956   000062                     	endif
  1957   000062  0008               	tblrd		*
  1958   000064  50F5               	movf	tablat,w,c
  1959   000066  0A25               	xorlw	37
  1960   000068  A4D8               	btfss	status,2,c
  1961   00006A  EF39  F000         	goto	u5011
  1962   00006E  EF3B  F000         	goto	u5010
  1963   000072                     u5011:
  1964   000072  EFAA  F001         	goto	l7242
  1965   000076                     u5010:
  1966   000076                     
  1967                           ;C:\Program Files\Microchip\xc8\v2.41\pic\sources\c99\common\doprnt.c: 1063:         ++*
      +                          fmt;
  1968   000076  C037  FFD9         	movff	vfpfcnvrt@fmt,fsr2l
  1969   00007A  C038  FFDA         	movff	vfpfcnvrt@fmt+1,fsr2h
  1970   00007E  2ADE               	incf	postinc2,f,c
  1971   000080  0E00               	movlw	0
  1972   000082  22DD               	addwfc	postdec2,f,c
  1973   000084                     
  1974                           ;C:\Program Files\Microchip\xc8\v2.41\pic\sources\c99\common\doprnt.c: 1065:         fla
      +                          gs = width = 0;
  1975   000084  0E00               	movlw	0
  1976   000086  0100               	movlb	0	; () banked
  1977   000088  6F9F               	movwf	(_width+1)& (0+255),b
  1978   00008A  0E00               	movlw	0
  1979   00008C  6F9E               	movwf	_width& (0+255),b
  1980   00008E  C09E  F0A6         	movff	_width,_flags
  1981   000092                     
  1982                           ; BSR set to: 0
  1983                           ;C:\Program Files\Microchip\xc8\v2.41\pic\sources\c99\common\doprnt.c: 1066:         pre
      +                          c = -1;
  1984   000092  69A0               	setf	_prec& (0+255),b
  1985   000094  69A1               	setf	(_prec+1)& (0+255),b
  1986   000096                     
  1987                           ; BSR set to: 0
  1988                           ;C:\Program Files\Microchip\xc8\v2.41\pic\sources\c99\common\doprnt.c: 1143:   cp = *fmt
      +                          ;
  1989   000096  C037  FFD9         	movff	vfpfcnvrt@fmt,fsr2l
  1990   00009A  C038  FFDA         	movff	vfpfcnvrt@fmt+1,fsr2h
  1991   00009E  CFDE F044          	movff	postinc2,vfpfcnvrt@cp
  1992   0000A2  CFDD F045          	movff	postdec2,vfpfcnvrt@cp+1
  1993   0000A6                     
  1994                           ; BSR set to: 0
  1995                           ;C:\Program Files\Microchip\xc8\v2.41\pic\sources\c99\common\doprnt.c: 1145:   c = *cp;
  1996   0000A6  C044  FFF6         	movff	vfpfcnvrt@cp,tblptrl
  1997   0000AA  C045  FFF7         	movff	vfpfcnvrt@cp+1,tblptrh
  1998   0000AE                     	if	1	;Program memory is < 0x10000, tblptru is always zero
  1999   0000AE  6AF8               	clrf	tblptru,c
  2000   0000B0                     	endif
  2001   0000B0                     	if	0	;tblptru may be non-zero
  2002   0000B0                     	endif
  2003   0000B0  0008               	tblrd		*
  2004   0000B2  CFF5 F043          	movff	tablat,vfpfcnvrt@c
  2005                           
  2006                           ;C:\Program Files\Microchip\xc8\v2.41\pic\sources\c99\common\doprnt.c: 1146:   switch(c)
      +                           {
  2007   0000B6  EF69  F000         	goto	l7198
  2008   0000BA                     l7190:
  2009                           
  2010                           ; BSR set to: 0
  2011                           ;C:\Program Files\Microchip\xc8\v2.41\pic\sources\c99\common\doprnt.c: 1161:     cp++;
  2012   0000BA  4A44               	infsnz	vfpfcnvrt@cp^0,f,c
  2013   0000BC  2A45               	incf	(vfpfcnvrt@cp+1)^0,f,c
  2014                           
  2015                           ;C:\Program Files\Microchip\xc8\v2.41\pic\sources\c99\common\doprnt.c: 1168:     break;
  2016   0000BE  EF86  F000         	goto	l7200
  2017   0000C2                     l7192:
  2018                           
  2019                           ; BSR set to: 0
  2020                           ;C:\Program Files\Microchip\xc8\v2.41\pic\sources\c99\common\doprnt.c: 1202:     c = 'i'
      +                          ;
  2021   0000C2  0E69               	movlw	105
  2022   0000C4  6E43               	movwf	vfpfcnvrt@c^0,c
  2023                           
  2024                           ;C:\Program Files\Microchip\xc8\v2.41\pic\sources\c99\common\doprnt.c: 1203:     break;
  2025   0000C6  EF86  F000         	goto	l7200
  2026   0000CA                     l7194:
  2027                           
  2028                           ; BSR set to: 0
  2029                           ;C:\Program Files\Microchip\xc8\v2.41\pic\sources\c99\common\doprnt.c: 1205:     c = 0;
  2030   0000CA  0E00               	movlw	0
  2031   0000CC  6E43               	movwf	vfpfcnvrt@c^0,c
  2032                           
  2033                           ;C:\Program Files\Microchip\xc8\v2.41\pic\sources\c99\common\doprnt.c: 1206:     break;
  2034   0000CE  EF86  F000         	goto	l7200
  2035   0000D2                     l7198:
  2036                           
  2037                           ; BSR set to: 0
  2038   0000D2  5043               	movf	vfpfcnvrt@c^0,w,c
  2039   0000D4  6E3B               	movwf	??_vfpfcnvrt^0,c
  2040   0000D6  6A3C               	clrf	(??_vfpfcnvrt+1)^0,c
  2041                           
  2042                           ; Switch on 2 bytes has been partitioned into a top level switch of size 1, and 1 sub-sw
      +                          itches
  2043                           ; Switch size 1, requested type "simple"
  2044                           ; Number of cases is 1, Range of values is 0 to 0
  2045                           ; switch strategies available:
  2046                           ; Name         Instructions Cycles
  2047                           ; simple_byte            4     3 (average)
  2048                           ;	Chosen strategy is simple_byte
  2049   0000D8  503C               	movf	(??_vfpfcnvrt+1)^0,w,c
  2050   0000DA  0A00               	xorlw	0	; case 0
  2051   0000DC  B4D8               	btfsc	status,2,c
  2052   0000DE  EF73  F000         	goto	l8248
  2053   0000E2  EF65  F000         	goto	l7194
  2054   0000E6                     l8248:
  2055                           
  2056                           ; BSR set to: 0
  2057                           ; Switch size 1, requested type "simple"
  2058                           ; Number of cases is 4, Range of values is 88 to 108
  2059                           ; switch strategies available:
  2060                           ; Name         Instructions Cycles
  2061                           ; simple_byte           13     7 (average)
  2062                           ;	Chosen strategy is simple_byte
  2063   0000E6  503B               	movf	??_vfpfcnvrt^0,w,c
  2064   0000E8  0A58               	xorlw	88	; case 88
  2065   0000EA  B4D8               	btfsc	status,2,c
  2066   0000EC  EF61  F000         	goto	l7192
  2067   0000F0  0A3C               	xorlw	60	; case 100
  2068   0000F2  B4D8               	btfsc	status,2,c
  2069   0000F4  EF61  F000         	goto	l7192
  2070   0000F8  0A0D               	xorlw	13	; case 105
  2071   0000FA  B4D8               	btfsc	status,2,c
  2072   0000FC  EF61  F000         	goto	l7192
  2073   000100  0A05               	xorlw	5	; case 108
  2074   000102  B4D8               	btfsc	status,2,c
  2075   000104  EF5D  F000         	goto	l7190
  2076   000108  EF65  F000         	goto	l7194
  2077   00010C                     l7200:
  2078                           
  2079                           ; BSR set to: 0
  2080                           ;C:\Program Files\Microchip\xc8\v2.41\pic\sources\c99\common\doprnt.c: 1213:   if (*cp =
      +                          = 'd' || *cp == 'i') {
  2081   00010C  C044  FFF6         	movff	vfpfcnvrt@cp,tblptrl
  2082   000110  C045  FFF7         	movff	vfpfcnvrt@cp+1,tblptrh
  2083   000114                     	if	1	;Program memory is < 0x10000, tblptru is always zero
  2084   000114  6AF8               	clrf	tblptru,c
  2085   000116                     	endif
  2086   000116                     	if	0	;tblptru may be non-zero
  2087   000116                     	endif
  2088   000116  0008               	tblrd		*
  2089   000118  50F5               	movf	tablat,w,c
  2090   00011A  0A64               	xorlw	100
  2091   00011C  B4D8               	btfsc	status,2,c
  2092   00011E  EF93  F000         	goto	u5021
  2093   000122  EF95  F000         	goto	u5020
  2094   000126                     u5021:
  2095   000126  EFDB  F000         	goto	l7210
  2096   00012A                     u5020:
  2097   00012A                     
  2098                           ; BSR set to: 0
  2099   00012A  C044  FFF6         	movff	vfpfcnvrt@cp,tblptrl
  2100   00012E  C045  FFF7         	movff	vfpfcnvrt@cp+1,tblptrh
  2101   000132                     	if	1	;Program memory is < 0x10000, tblptru is always zero
  2102   000132  6AF8               	clrf	tblptru,c
  2103   000134                     	endif
  2104   000134                     	if	0	;tblptru may be non-zero
  2105   000134                     	endif
  2106   000134  0008               	tblrd		*
  2107   000136  50F5               	movf	tablat,w,c
  2108   000138  0A69               	xorlw	105
  2109   00013A  A4D8               	btfss	status,2,c
  2110   00013C  EFA2  F000         	goto	u5031
  2111   000140  EFA4  F000         	goto	u5030
  2112   000144                     u5031:
  2113   000144  EF0E  F001         	goto	l7218
  2114   000148                     u5030:
  2115   000148  EFDB  F000         	goto	l7210
  2116   00014C                     l7204:
  2117                           
  2118                           ; BSR set to: 0
  2119                           ;C:\Program Files\Microchip\xc8\v2.41\pic\sources\c99\common\doprnt.c: 1217:      convar
      +                          g.sint = (vfpf_sint_t)(int)(*(int *)__va_arg(*(int **)ap, (int)0));
  2120   00014C  C039  FFD9         	movff	vfpfcnvrt@ap,fsr2l
  2121   000150  C03A  FFDA         	movff	vfpfcnvrt@ap+1,fsr2h
  2122   000154  CFDF F03B          	movff	indf2,??_vfpfcnvrt
  2123   000158  0E02               	movlw	2
  2124   00015A  26DE               	addwf	postinc2,f,c
  2125   00015C  CFDF F03C          	movff	indf2,??_vfpfcnvrt+1
  2126   000160  0E00               	movlw	0
  2127   000162  22DD               	addwfc	postdec2,f,c
  2128   000164  C03B  FFD9         	movff	??_vfpfcnvrt,fsr2l
  2129   000168  C03C  FFDA         	movff	??_vfpfcnvrt+1,fsr2h
  2130   00016C  CFDE F03F          	movff	postinc2,vfpfcnvrt@convarg
  2131   000170  CFDD F040          	movff	postdec2,vfpfcnvrt@convarg+1
  2132   000174  0E00               	movlw	0
  2133   000176  BE40               	btfsc	(vfpfcnvrt@convarg+1)^0,7,c
  2134   000178  0EFF               	movlw	-1
  2135   00017A  6E41               	movwf	(vfpfcnvrt@convarg+2)^0,c
  2136   00017C  6E42               	movwf	(vfpfcnvrt@convarg+3)^0,c
  2137                           
  2138                           ;C:\Program Files\Microchip\xc8\v2.41\pic\sources\c99\common\doprnt.c: 1218:      break;
  2139   00017E  EFF0  F000         	goto	l7212
  2140   000182                     l7206:
  2141                           
  2142                           ; BSR set to: 0
  2143                           ;C:\Program Files\Microchip\xc8\v2.41\pic\sources\c99\common\doprnt.c: 1231:      convar
      +                          g.sint = (vfpf_sint_t)(*(long *)__va_arg(*(long **)ap, (long)0));
  2144   000182  C039  FFD9         	movff	vfpfcnvrt@ap,fsr2l
  2145   000186  C03A  FFDA         	movff	vfpfcnvrt@ap+1,fsr2h
  2146   00018A  CFDF F03B          	movff	indf2,??_vfpfcnvrt
  2147   00018E  0E04               	movlw	4
  2148   000190  26DE               	addwf	postinc2,f,c
  2149   000192  CFDF F03C          	movff	indf2,??_vfpfcnvrt+1
  2150   000196  0E00               	movlw	0
  2151   000198  22DD               	addwfc	postdec2,f,c
  2152   00019A  C03B  FFD9         	movff	??_vfpfcnvrt,fsr2l
  2153   00019E  C03C  FFDA         	movff	??_vfpfcnvrt+1,fsr2h
  2154   0001A2  CFDE F03F          	movff	postinc2,vfpfcnvrt@convarg
  2155   0001A6  CFDE F040          	movff	postinc2,vfpfcnvrt@convarg+1
  2156   0001AA  CFDE F041          	movff	postinc2,vfpfcnvrt@convarg+2
  2157   0001AE  CFDE F042          	movff	postinc2,vfpfcnvrt@convarg+3
  2158                           
  2159                           ;C:\Program Files\Microchip\xc8\v2.41\pic\sources\c99\common\doprnt.c: 1232:      break;
  2160   0001B2  EFF0  F000         	goto	l7212
  2161   0001B6                     l7210:
  2162                           
  2163                           ; BSR set to: 0
  2164   0001B6  5043               	movf	vfpfcnvrt@c^0,w,c
  2165   0001B8  6E3B               	movwf	??_vfpfcnvrt^0,c
  2166   0001BA  6A3C               	clrf	(??_vfpfcnvrt+1)^0,c
  2167                           
  2168                           ; Switch on 2 bytes has been partitioned into a top level switch of size 1, and 1 sub-sw
      +                          itches
  2169                           ; Switch size 1, requested type "simple"
  2170                           ; Number of cases is 1, Range of values is 0 to 0
  2171                           ; switch strategies available:
  2172                           ; Name         Instructions Cycles
  2173                           ; simple_byte            4     3 (average)
  2174                           ;	Chosen strategy is simple_byte
  2175   0001BC  503C               	movf	(??_vfpfcnvrt+1)^0,w,c
  2176   0001BE  0A00               	xorlw	0	; case 0
  2177   0001C0  B4D8               	btfsc	status,2,c
  2178   0001C2  EFE5  F000         	goto	l8250
  2179   0001C6  EFF0  F000         	goto	l7212
  2180   0001CA                     l8250:
  2181                           
  2182                           ; BSR set to: 0
  2183                           ; Switch size 1, requested type "simple"
  2184                           ; Number of cases is 2, Range of values is 105 to 108
  2185                           ; switch strategies available:
  2186                           ; Name         Instructions Cycles
  2187                           ; simple_byte            7     4 (average)
  2188                           ;	Chosen strategy is simple_byte
  2189   0001CA  503B               	movf	??_vfpfcnvrt^0,w,c
  2190   0001CC  0A69               	xorlw	105	; case 105
  2191   0001CE  B4D8               	btfsc	status,2,c
  2192   0001D0  EFA6  F000         	goto	l7204
  2193   0001D4  0A05               	xorlw	5	; case 108
  2194   0001D6  B4D8               	btfsc	status,2,c
  2195   0001D8  EFC1  F000         	goto	l7206
  2196   0001DC  EFF0  F000         	goto	l7212
  2197   0001E0                     l7212:
  2198                           
  2199                           ; BSR set to: 0
  2200                           ;C:\Program Files\Microchip\xc8\v2.41\pic\sources\c99\common\doprnt.c: 1258:    *fmt = c
      +                          p+1;
  2201   0001E0  0E01               	movlw	1
  2202   0001E2  2444               	addwf	vfpfcnvrt@cp^0,w,c
  2203   0001E4  6E3B               	movwf	??_vfpfcnvrt^0,c
  2204   0001E6  0E00               	movlw	0
  2205   0001E8  2045               	addwfc	(vfpfcnvrt@cp+1)^0,w,c
  2206   0001EA  6E3C               	movwf	(??_vfpfcnvrt+1)^0,c
  2207   0001EC  C037  FFD9         	movff	vfpfcnvrt@fmt,fsr2l
  2208   0001F0  C038  FFDA         	movff	vfpfcnvrt@fmt+1,fsr2h
  2209   0001F4  C03B  FFDE         	movff	??_vfpfcnvrt,postinc2
  2210   0001F8  C03C  FFDD         	movff	??_vfpfcnvrt+1,postdec2
  2211   0001FC                     
  2212                           ; BSR set to: 0
  2213                           ;C:\Program Files\Microchip\xc8\v2.41\pic\sources\c99\common\doprnt.c: 1259:    return (
      +                          void) dtoa(fp, convarg.sint);;	Return value of _vfpfcnvrt is never used
  2214   0001FC  C035  F022         	movff	vfpfcnvrt@fp,dtoa@fp
  2215   000200  C036  F023         	movff	vfpfcnvrt@fp+1,dtoa@fp+1
  2216   000204  C03F  F024         	movff	vfpfcnvrt@convarg,dtoa@d
  2217   000208  C040  F025         	movff	vfpfcnvrt@convarg+1,dtoa@d+1
  2218   00020C  C041  F026         	movff	vfpfcnvrt@convarg+2,dtoa@d+2
  2219   000210  C042  F027         	movff	vfpfcnvrt@convarg+3,dtoa@d+3
  2220   000214  ECDB  F002         	call	_dtoa	;wreg free
  2221   000218  EFBF  F001         	goto	l2111
  2222   00021C                     l7218:
  2223                           
  2224                           ; BSR set to: 0
  2225   00021C  C044  FFF6         	movff	vfpfcnvrt@cp,tblptrl
  2226   000220  C045  FFF7         	movff	vfpfcnvrt@cp+1,tblptrh
  2227   000224                     	if	1	;Program memory is < 0x10000, tblptru is always zero
  2228   000224  6AF8               	clrf	tblptru,c
  2229   000226                     	endif
  2230   000226                     	if	0	;tblptru may be non-zero
  2231   000226                     	endif
  2232   000226  0008               	tblrd		*
  2233   000228  50F5               	movf	tablat,w,c
  2234   00022A  0A58               	xorlw	88
  2235   00022C  A4D8               	btfss	status,2,c
  2236   00022E  EF1B  F001         	goto	u5041
  2237   000232  EF1D  F001         	goto	u5040
  2238   000236                     u5041:
  2239   000236  EFA1  F001         	goto	l7238
  2240   00023A                     u5040:
  2241   00023A  EF55  F001         	goto	l7226
  2242   00023E                     l7220:
  2243                           
  2244                           ; BSR set to: 0
  2245                           ;C:\Program Files\Microchip\xc8\v2.41\pic\sources\c99\common\doprnt.c: 1282:      convar
      +                          g.uint = (vfpf_uint_t)(unsigned int)(*(unsigned int *)__va_arg(*(unsigned int **)ap, (un
      +                          signed int)0));
  2246   00023E  C039  FFD9         	movff	vfpfcnvrt@ap,fsr2l
  2247   000242  C03A  FFDA         	movff	vfpfcnvrt@ap+1,fsr2h
  2248   000246  CFDF F03B          	movff	indf2,??_vfpfcnvrt
  2249   00024A  0E02               	movlw	2
  2250   00024C  26DE               	addwf	postinc2,f,c
  2251   00024E  CFDF F03C          	movff	indf2,??_vfpfcnvrt+1
  2252   000252  0E00               	movlw	0
  2253   000254  22DD               	addwfc	postdec2,f,c
  2254   000256  C03B  FFD9         	movff	??_vfpfcnvrt,fsr2l
  2255   00025A  C03C  FFDA         	movff	??_vfpfcnvrt+1,fsr2h
  2256   00025E  CFDE F03D          	movff	postinc2,??_vfpfcnvrt+2
  2257   000262  CFDD F03E          	movff	postdec2,??_vfpfcnvrt+3
  2258   000266  C03D  F03F         	movff	??_vfpfcnvrt+2,vfpfcnvrt@convarg
  2259   00026A  C03E  F040         	movff	??_vfpfcnvrt+3,vfpfcnvrt@convarg+1
  2260   00026E  6A41               	clrf	(vfpfcnvrt@convarg+2)^0,c
  2261   000270  6A42               	clrf	(vfpfcnvrt@convarg+3)^0,c
  2262                           
  2263                           ;C:\Program Files\Microchip\xc8\v2.41\pic\sources\c99\common\doprnt.c: 1283:      break;
  2264   000272  EF6A  F001         	goto	l7228
  2265   000276                     l7222:
  2266                           
  2267                           ; BSR set to: 0
  2268                           ;C:\Program Files\Microchip\xc8\v2.41\pic\sources\c99\common\doprnt.c: 1296:      convar
      +                          g.uint = (vfpf_uint_t)(*(unsigned long *)__va_arg(*(unsigned long **)ap, (unsigned long)
      +                          0));
  2269   000276  C039  FFD9         	movff	vfpfcnvrt@ap,fsr2l
  2270   00027A  C03A  FFDA         	movff	vfpfcnvrt@ap+1,fsr2h
  2271   00027E  CFDF F03B          	movff	indf2,??_vfpfcnvrt
  2272   000282  0E04               	movlw	4
  2273   000284  26DE               	addwf	postinc2,f,c
  2274   000286  CFDF F03C          	movff	indf2,??_vfpfcnvrt+1
  2275   00028A  0E00               	movlw	0
  2276   00028C  22DD               	addwfc	postdec2,f,c
  2277   00028E  C03B  FFD9         	movff	??_vfpfcnvrt,fsr2l
  2278   000292  C03C  FFDA         	movff	??_vfpfcnvrt+1,fsr2h
  2279   000296  CFDE F03F          	movff	postinc2,vfpfcnvrt@convarg
  2280   00029A  CFDE F040          	movff	postinc2,vfpfcnvrt@convarg+1
  2281   00029E  CFDE F041          	movff	postinc2,vfpfcnvrt@convarg+2
  2282   0002A2  CFDE F042          	movff	postinc2,vfpfcnvrt@convarg+3
  2283                           
  2284                           ;C:\Program Files\Microchip\xc8\v2.41\pic\sources\c99\common\doprnt.c: 1297:      break;
  2285   0002A6  EF6A  F001         	goto	l7228
  2286   0002AA                     l7226:
  2287                           
  2288                           ; BSR set to: 0
  2289   0002AA  5043               	movf	vfpfcnvrt@c^0,w,c
  2290   0002AC  6E3B               	movwf	??_vfpfcnvrt^0,c
  2291   0002AE  6A3C               	clrf	(??_vfpfcnvrt+1)^0,c
  2292                           
  2293                           ; Switch on 2 bytes has been partitioned into a top level switch of size 1, and 1 sub-sw
      +                          itches
  2294                           ; Switch size 1, requested type "simple"
  2295                           ; Number of cases is 1, Range of values is 0 to 0
  2296                           ; switch strategies available:
  2297                           ; Name         Instructions Cycles
  2298                           ; simple_byte            4     3 (average)
  2299                           ;	Chosen strategy is simple_byte
  2300   0002B0  503C               	movf	(??_vfpfcnvrt+1)^0,w,c
  2301   0002B2  0A00               	xorlw	0	; case 0
  2302   0002B4  B4D8               	btfsc	status,2,c
  2303   0002B6  EF5F  F001         	goto	l8252
  2304   0002BA  EF6A  F001         	goto	l7228
  2305   0002BE                     l8252:
  2306                           
  2307                           ; BSR set to: 0
  2308                           ; Switch size 1, requested type "simple"
  2309                           ; Number of cases is 2, Range of values is 105 to 108
  2310                           ; switch strategies available:
  2311                           ; Name         Instructions Cycles
  2312                           ; simple_byte            7     4 (average)
  2313                           ;	Chosen strategy is simple_byte
  2314   0002BE  503B               	movf	??_vfpfcnvrt^0,w,c
  2315   0002C0  0A69               	xorlw	105	; case 105
  2316   0002C2  B4D8               	btfsc	status,2,c
  2317   0002C4  EF1F  F001         	goto	l7220
  2318   0002C8  0A05               	xorlw	5	; case 108
  2319   0002CA  B4D8               	btfsc	status,2,c
  2320   0002CC  EF3B  F001         	goto	l7222
  2321   0002D0  EF6A  F001         	goto	l7228
  2322   0002D4                     l7228:
  2323                           
  2324                           ; BSR set to: 0
  2325                           ;C:\Program Files\Microchip\xc8\v2.41\pic\sources\c99\common\doprnt.c: 1323:    *fmt = c
      +                          p+1;
  2326   0002D4  0E01               	movlw	1
  2327   0002D6  2444               	addwf	vfpfcnvrt@cp^0,w,c
  2328   0002D8  6E3B               	movwf	??_vfpfcnvrt^0,c
  2329   0002DA  0E00               	movlw	0
  2330   0002DC  2045               	addwfc	(vfpfcnvrt@cp+1)^0,w,c
  2331   0002DE  6E3C               	movwf	(??_vfpfcnvrt+1)^0,c
  2332   0002E0  C037  FFD9         	movff	vfpfcnvrt@fmt,fsr2l
  2333   0002E4  C038  FFDA         	movff	vfpfcnvrt@fmt+1,fsr2h
  2334   0002E8  C03B  FFDE         	movff	??_vfpfcnvrt,postinc2
  2335   0002EC  C03C  FFDD         	movff	??_vfpfcnvrt+1,postdec2
  2336                           
  2337                           ;C:\Program Files\Microchip\xc8\v2.41\pic\sources\c99\common\doprnt.c: 1324:    switch (
      +                          *cp) {
  2338   0002F0  EF8A  F001         	goto	l7236
  2339   0002F4                     l7230:
  2340                           
  2341                           ; BSR set to: 0
  2342                           ;C:\Program Files\Microchip\xc8\v2.41\pic\sources\c99\common\doprnt.c: 1340:      return
      +                           (void) xtoa(fp,convarg.uint);;	Return value of _vfpfcnvrt is never used
  2343   0002F4  C035  F022         	movff	vfpfcnvrt@fp,xtoa@fp
  2344   0002F8  C036  F023         	movff	vfpfcnvrt@fp+1,xtoa@fp+1
  2345   0002FC  C03F  F024         	movff	vfpfcnvrt@convarg,xtoa@d
  2346   000300  C040  F025         	movff	vfpfcnvrt@convarg+1,xtoa@d+1
  2347   000304  C041  F026         	movff	vfpfcnvrt@convarg+2,xtoa@d+2
  2348   000308  C042  F027         	movff	vfpfcnvrt@convarg+3,xtoa@d+3
  2349   00030C  EC33  F005         	call	_xtoa	;wreg free
  2350   000310  EFBF  F001         	goto	l2111
  2351   000314                     l7236:
  2352                           
  2353                           ; BSR set to: 0
  2354   000314  C044  FFF6         	movff	vfpfcnvrt@cp,tblptrl
  2355   000318  C045  FFF7         	movff	vfpfcnvrt@cp+1,tblptrh
  2356   00031C                     	if	1	;Program memory is < 0x10000, tblptru is always zero
  2357   00031C  6AF8               	clrf	tblptru,c
  2358   00031E                     	endif
  2359   00031E                     	if	0	;tblptru may be non-zero
  2360   00031E                     	endif
  2361   00031E  0008               	tblrd		*
  2362   000320  50F5               	movf	tablat,w,c
  2363   000322  6E3B               	movwf	??_vfpfcnvrt^0,c
  2364   000324  6A3C               	clrf	(??_vfpfcnvrt+1)^0,c
  2365                           
  2366                           ; Switch on 2 bytes has been partitioned into a top level switch of size 1, and 1 sub-sw
      +                          itches
  2367                           ; Switch size 1, requested type "simple"
  2368                           ; Number of cases is 1, Range of values is 0 to 0
  2369                           ; switch strategies available:
  2370                           ; Name         Instructions Cycles
  2371                           ; simple_byte            4     3 (average)
  2372                           ;	Chosen strategy is simple_byte
  2373   000326  503C               	movf	(??_vfpfcnvrt+1)^0,w,c
  2374   000328  0A00               	xorlw	0	; case 0
  2375   00032A  B4D8               	btfsc	status,2,c
  2376   00032C  EF9A  F001         	goto	l8254
  2377   000330  EFA1  F001         	goto	l7238
  2378   000334                     l8254:
  2379                           
  2380                           ; BSR set to: 0
  2381                           ; Switch size 1, requested type "simple"
  2382                           ; Number of cases is 1, Range of values is 88 to 88
  2383                           ; switch strategies available:
  2384                           ; Name         Instructions Cycles
  2385                           ; simple_byte            4     3 (average)
  2386                           ;	Chosen strategy is simple_byte
  2387   000334  503B               	movf	??_vfpfcnvrt^0,w,c
  2388   000336  0A58               	xorlw	88	; case 88
  2389   000338  B4D8               	btfsc	status,2,c
  2390   00033A  EF7A  F001         	goto	l7230
  2391   00033E  EFA1  F001         	goto	l7238
  2392   000342                     l7238:
  2393                           
  2394                           ;C:\Program Files\Microchip\xc8\v2.41\pic\sources\c99\common\doprnt.c: 1535:         ++*
      +                          fmt;
  2395   000342  C037  FFD9         	movff	vfpfcnvrt@fmt,fsr2l
  2396   000346  C038  FFDA         	movff	vfpfcnvrt@fmt+1,fsr2h
  2397   00034A  2ADE               	incf	postinc2,f,c
  2398   00034C  0E00               	movlw	0
  2399   00034E  22DD               	addwfc	postdec2,f,c
  2400   000350  EFBF  F001         	goto	l2111
  2401   000354                     l7242:
  2402                           
  2403                           ;C:\Program Files\Microchip\xc8\v2.41\pic\sources\c99\common\doprnt.c: 1540:     fputc((
      +                          int)(*fmt)[0], fp);
  2404   000354  C037  FFD9         	movff	vfpfcnvrt@fmt,fsr2l
  2405   000358  C038  FFDA         	movff	vfpfcnvrt@fmt+1,fsr2h
  2406   00035C  CFDE FFF6          	movff	postinc2,tblptrl
  2407   000360  CFDD FFF7          	movff	postdec2,tblptrh
  2408   000364                     	if	1	;Program memory is < 0x10000, tblptru is always zero
  2409   000364  6AF8               	clrf	tblptru,c
  2410   000366                     	endif
  2411   000366                     	if	0	;tblptru may be non-zero
  2412   000366                     	endif
  2413   000366  0008               	tblrd		*
  2414   000368  50F5               	movf	tablat,w,c
  2415   00036A  6E07               	movwf	fputc@c^0,c
  2416   00036C  6A08               	clrf	(fputc@c+1)^0,c
  2417   00036E  C035  F009         	movff	vfpfcnvrt@fp,fputc@fp
  2418   000372  C036  F00A         	movff	vfpfcnvrt@fp+1,fputc@fp+1
  2419   000376  EC20  F008         	call	_fputc	;wreg free
  2420   00037A  EFA1  F001         	goto	l7238
  2421   00037E                     l2111:
  2422   00037E  0012               	return		;funcret
  2423   000380                     __end_of_vfpfcnvrt:
  2424                           	callstack 0
  2425                           
  2426 ;; *************** function _xtoa *****************
  2427 ;; Defined at:
  2428 ;;		line 955 in file "C:\Program Files\Microchip\xc8\v2.41\pic\sources\c99\common\doprnt.c"
  2429 ;; Parameters:    Size  Location     Type
  2430 ;;  fp              2   33[COMRAM] PTR struct _IO_FILE
  2431 ;;		 -> NULL(0), 
  2432 ;;  d               4   35[COMRAM] unsigned long 
  2433 ;; Auto vars:     Size  Location     Type
  2434 ;;  i               2   49[COMRAM] int 
  2435 ;;  p               2   47[COMRAM] int 
  2436 ;;  w               2   43[COMRAM] int 
  2437 ;;  c               1   51[COMRAM] unsigned char 
  2438 ;; Return value:  Size  Location     Type
  2439 ;;                  1    wreg      void 
  2440 ;; Registers used:
  2441 ;;		wreg, fsr1l, fsr1h, fsr2l, fsr2h, status,2, status,0, cstack
  2442 ;; Tracked objects:
  2443 ;;		On entry : 0/0
  2444 ;;		On exit  : 0/0
  2445 ;;		Unchanged: 0/0
  2446 ;; Data sizes:     COMRAM   BANK0   BANK1   BANK2   BANK3   BANK4   BANK5   BANK6   BANK7   BANK8   BANK9  BANK10  BANK1
      +1  BANK12  BANK13  BANK14  BANK15
  2447 ;;      Params:         6       0       0       0       0       0       0       0       0       0       0       0       
      +0       0       0       0       0
  2448 ;;      Locals:         9       0       0       0       0       0       0       0       0       0       0       0       
      +0       0       0       0       0
  2449 ;;      Temps:          4       0       0       0       0       0       0       0       0       0       0       0       
      +0       0       0       0       0
  2450 ;;      Totals:        19       0       0       0       0       0       0       0       0       0       0       0       
      +0       0       0       0       0
  2451 ;;Total ram usage:       19 bytes
  2452 ;; Hardware stack levels used: 1
  2453 ;; Hardware stack levels required when called: 8
  2454 ;; This function calls:
  2455 ;;		_pad
  2456 ;; This function is called by:
  2457 ;;		_vfpfcnvrt
  2458 ;; This function uses a non-reentrant model
  2459 ;;
  2460                           
  2461                           	psect	text4
  2462   000A66                     __ptext4:
  2463                           	callstack 0
  2464   000A66                     _xtoa:
  2465                           	callstack 19
  2466   000A66                     
  2467                           ;C:\Program Files\Microchip\xc8\v2.41\pic\sources\c99\common\doprnt.c: 955: static void 
      +                          xtoa(FILE *fp, vfpf_uint_t d);C:\Program Files\Microchip\xc8\v2.41\pic\sources\c99\commo
      +                          n\doprnt.c: 958: {;C:\Program Files\Microchip\xc8\v2.41\pic\sources\c99\common\doprnt.c:
      +                           959:  char c;;C:\Program Files\Microchip\xc8\v2.41\pic\sources\c99\common\doprnt.c: 960
      +                          :     int i, p, w;;C:\Program Files\Microchip\xc8\v2.41\pic\sources\c99\common\doprnt.c:
      +                           971:     p = (0 <= prec) ? prec : 1;
  2468   000A66  0100               	movlb	0	; () banked
  2469   000A68  BFA1               	btfsc	(_prec+1)& (0+255),7,b
  2470   000A6A  EF3B  F005         	goto	u4680
  2471   000A6E  EF39  F005         	goto	u4681
  2472   000A72                     u4681:
  2473   000A72  EF41  F005         	goto	l2081
  2474   000A76                     u4680:
  2475   000A76                     
  2476                           ; BSR set to: 0
  2477   000A76  0E00               	movlw	0
  2478   000A78  6E31               	movwf	(xtoa@p+1)^0,c
  2479   000A7A  0E01               	movlw	1
  2480   000A7C  6E30               	movwf	xtoa@p^0,c
  2481   000A7E  EF45  F005         	goto	l2083
  2482   000A82                     l2081:
  2483                           
  2484                           ; BSR set to: 0
  2485   000A82  C0A0  F030         	movff	_prec,xtoa@p
  2486   000A86  C0A1  F031         	movff	_prec+1,xtoa@p+1
  2487   000A8A                     l2083:
  2488                           
  2489                           ; BSR set to: 0
  2490                           ;C:\Program Files\Microchip\xc8\v2.41\pic\sources\c99\common\doprnt.c: 972:     w = widt
      +                          h;
  2491   000A8A  C09E  F02C         	movff	_width,xtoa@w
  2492   000A8E  C09F  F02D         	movff	_width+1,xtoa@w+1
  2493   000A92                     
  2494                           ; BSR set to: 0
  2495                           ;C:\Program Files\Microchip\xc8\v2.41\pic\sources\c99\common\doprnt.c: 981:     i = size
      +                          of(dbuf) - 1;
  2496   000A92  0E00               	movlw	0
  2497   000A94  6E33               	movwf	(xtoa@i+1)^0,c
  2498   000A96  0E1F               	movlw	31
  2499   000A98  6E32               	movwf	xtoa@i^0,c
  2500   000A9A                     
  2501                           ; BSR set to: 0
  2502                           ;C:\Program Files\Microchip\xc8\v2.41\pic\sources\c99\common\doprnt.c: 982:     dbuf[i] 
      +                          = '\0';
  2503   000A9A  0E00               	movlw	0
  2504   000A9C  6FCB               	movwf	(_dbuf+31)& (0+255),b
  2505                           
  2506                           ;C:\Program Files\Microchip\xc8\v2.41\pic\sources\c99\common\doprnt.c: 983:     while (!
      +                          (i < 2) && (d || (0 < p)
  2507   000A9E  EF98  F005         	goto	l6990
  2508   000AA2                     l6970:
  2509                           
  2510                           ;C:\Program Files\Microchip\xc8\v2.41\pic\sources\c99\common\doprnt.c: 987:     )) {;C:\
      +                          Program Files\Microchip\xc8\v2.41\pic\sources\c99\common\doprnt.c: 988:         --i;
  2511   000AA2  0632               	decf	xtoa@i^0,f,c
  2512   000AA4  A0D8               	btfss	status,0,c
  2513   000AA6  0633               	decf	(xtoa@i+1)^0,f,c
  2514   000AA8                     
  2515                           ;C:\Program Files\Microchip\xc8\v2.41\pic\sources\c99\common\doprnt.c: 989:         c = 
      +                          d & 0x0f;
  2516   000AA8  5024               	movf	xtoa@d^0,w,c
  2517   000AAA  0B0F               	andlw	15
  2518   000AAC  6E34               	movwf	xtoa@c^0,c
  2519   000AAE                     
  2520                           ;C:\Program Files\Microchip\xc8\v2.41\pic\sources\c99\common\doprnt.c: 998:         c = 
      +                          (c < 10) ? (int)'0' + c : (int)'A' + (c - 10);
  2521   000AAE  0E09               	movlw	9
  2522   000AB0  6434               	cpfsgt	xtoa@c^0,c
  2523   000AB2  EF5D  F005         	goto	u4691
  2524   000AB6  EF5F  F005         	goto	u4690
  2525   000ABA                     u4691:
  2526   000ABA  EF67  F005         	goto	l6978
  2527   000ABE                     u4690:
  2528   000ABE  0E37               	movlw	55
  2529   000AC0  2434               	addwf	xtoa@c^0,w,c
  2530   000AC2  6E2E               	movwf	_xtoa$3505^0,c
  2531   000AC4  6A2F               	clrf	(_xtoa$3505+1)^0,c
  2532   000AC6  0E00               	movlw	0
  2533   000AC8  222F               	addwfc	(_xtoa$3505+1)^0,f,c
  2534   000ACA  EF6D  F005         	goto	l6980
  2535   000ACE                     l6978:
  2536   000ACE  0E30               	movlw	48
  2537   000AD0  2434               	addwf	xtoa@c^0,w,c
  2538   000AD2  6E2E               	movwf	_xtoa$3505^0,c
  2539   000AD4  6A2F               	clrf	(_xtoa$3505+1)^0,c
  2540   000AD6  0E00               	movlw	0
  2541   000AD8  222F               	addwfc	(_xtoa$3505+1)^0,f,c
  2542   000ADA                     l6980:
  2543   000ADA  C02E  F034         	movff	_xtoa$3505,xtoa@c
  2544   000ADE                     
  2545                           ;C:\Program Files\Microchip\xc8\v2.41\pic\sources\c99\common\doprnt.c: 1000:         dbu
      +                          f[i] = (char)c;
  2546   000ADE  0EAC               	movlw	low _dbuf
  2547   000AE0  2432               	addwf	xtoa@i^0,w,c
  2548   000AE2  6ED9               	movwf	fsr2l,c
  2549   000AE4  0E00               	movlw	high _dbuf
  2550   000AE6  2033               	addwfc	(xtoa@i+1)^0,w,c
  2551   000AE8  6EDA               	movwf	fsr2h,c
  2552   000AEA  C034  FFDF         	movff	xtoa@c,indf2
  2553   000AEE                     
  2554                           ;C:\Program Files\Microchip\xc8\v2.41\pic\sources\c99\common\doprnt.c: 1001:         --p
      +                          ;
  2555   000AEE  0630               	decf	xtoa@p^0,f,c
  2556   000AF0  A0D8               	btfss	status,0,c
  2557   000AF2  0631               	decf	(xtoa@p+1)^0,f,c
  2558   000AF4                     
  2559                           ;C:\Program Files\Microchip\xc8\v2.41\pic\sources\c99\common\doprnt.c: 1002:         --w
      +                          ;
  2560   000AF4  062C               	decf	xtoa@w^0,f,c
  2561   000AF6  A0D8               	btfss	status,0,c
  2562   000AF8  062D               	decf	(xtoa@w+1)^0,f,c
  2563   000AFA                     
  2564                           ;C:\Program Files\Microchip\xc8\v2.41\pic\sources\c99\common\doprnt.c: 1003:         d =
      +                           d >> 4;
  2565   000AFA  C024  F028         	movff	xtoa@d,??_xtoa
  2566   000AFE  C025  F029         	movff	xtoa@d+1,??_xtoa+1
  2567   000B02  C026  F02A         	movff	xtoa@d+2,??_xtoa+2
  2568   000B06  C027  F02B         	movff	xtoa@d+3,??_xtoa+3
  2569   000B0A  0E05               	movlw	5
  2570   000B0C  EF8D  F005         	goto	u4700
  2571   000B10                     u4705:
  2572   000B10  90D8               	bcf	status,0,c
  2573   000B12  322B               	rrcf	(??_xtoa+3)^0,f,c
  2574   000B14  322A               	rrcf	(??_xtoa+2)^0,f,c
  2575   000B16  3229               	rrcf	(??_xtoa+1)^0,f,c
  2576   000B18  3228               	rrcf	??_xtoa^0,f,c
  2577   000B1A                     u4700:
  2578   000B1A  2EE8               	decfsz	wreg,f,c
  2579   000B1C  EF88  F005         	goto	u4705
  2580   000B20  C028  F024         	movff	??_xtoa,xtoa@d
  2581   000B24  C029  F025         	movff	??_xtoa+1,xtoa@d+1
  2582   000B28  C02A  F026         	movff	??_xtoa+2,xtoa@d+2
  2583   000B2C  C02B  F027         	movff	??_xtoa+3,xtoa@d+3
  2584   000B30                     l6990:
  2585                           
  2586                           ;C:\Program Files\Microchip\xc8\v2.41\pic\sources\c99\common\doprnt.c: 983:     while (!
      +                          (i < 2) && (d || (0 < p)
  2587   000B30  BE33               	btfsc	(xtoa@i+1)^0,7,c
  2588   000B32  EFA4  F005         	goto	u4711
  2589   000B36  5033               	movf	(xtoa@i+1)^0,w,c
  2590   000B38  E109               	bnz	u4710
  2591   000B3A  0E02               	movlw	2
  2592   000B3C  5C32               	subwf	xtoa@i^0,w,c
  2593   000B3E  A0D8               	btfss	status,0,c
  2594   000B40  EFA4  F005         	goto	u4711
  2595   000B44  EFA6  F005         	goto	u4710
  2596   000B48                     u4711:
  2597   000B48  EFBE  F005         	goto	l6996
  2598   000B4C                     u4710:
  2599   000B4C  5024               	movf	xtoa@d^0,w,c
  2600   000B4E  1025               	iorwf	(xtoa@d+1)^0,w,c
  2601   000B50  1026               	iorwf	(xtoa@d+2)^0,w,c
  2602   000B52  1027               	iorwf	(xtoa@d+3)^0,w,c
  2603   000B54  A4D8               	btfss	status,2,c
  2604   000B56  EFAF  F005         	goto	u4721
  2605   000B5A  EFB1  F005         	goto	u4720
  2606   000B5E                     u4721:
  2607   000B5E  EF51  F005         	goto	l6970
  2608   000B62                     u4720:
  2609   000B62  BE31               	btfsc	(xtoa@p+1)^0,7,c
  2610   000B64  EFBE  F005         	goto	u4730
  2611   000B68  5031               	movf	(xtoa@p+1)^0,w,c
  2612   000B6A  E106               	bnz	u4731
  2613   000B6C  0430               	decf	xtoa@p^0,w,c
  2614   000B6E  B0D8               	btfsc	status,0,c
  2615   000B70  EFBC  F005         	goto	u4731
  2616   000B74  EFBE  F005         	goto	u4730
  2617   000B78                     u4731:
  2618   000B78  EF51  F005         	goto	l6970
  2619   000B7C                     u4730:
  2620   000B7C                     l6996:
  2621                           
  2622                           ;C:\Program Files\Microchip\xc8\v2.41\pic\sources\c99\common\doprnt.c: 1023:     return 
      +                          (void) pad(fp, &dbuf[i], w);
  2623   000B7C  C022  F017         	movff	xtoa@fp,pad@fp
  2624   000B80  C023  F018         	movff	xtoa@fp+1,pad@fp+1
  2625   000B84  0EAC               	movlw	low _dbuf
  2626   000B86  2432               	addwf	xtoa@i^0,w,c
  2627   000B88  6E19               	movwf	pad@buf^0,c
  2628   000B8A  0E00               	movlw	high _dbuf
  2629   000B8C  2033               	addwfc	(xtoa@i+1)^0,w,c
  2630   000B8E  6E1A               	movwf	(pad@buf+1)^0,c
  2631   000B90  C02C  F01B         	movff	xtoa@w,pad@p
  2632   000B94  C02D  F01C         	movff	xtoa@w+1,pad@p+1
  2633   000B98  EC3E  F00A         	call	_pad	;wreg free
  2634   000B9C  0012               	return		;funcret
  2635   000B9E                     __end_of_xtoa:
  2636                           	callstack 0
  2637                           
  2638 ;; *************** function _dtoa *****************
  2639 ;; Defined at:
  2640 ;;		line 470 in file "C:\Program Files\Microchip\xc8\v2.41\pic\sources\c99\common\doprnt.c"
  2641 ;; Parameters:    Size  Location     Type
  2642 ;;  fp              2   33[COMRAM] PTR struct _IO_FILE
  2643 ;;		 -> NULL(0), 
  2644 ;;  d               4   35[COMRAM] long 
  2645 ;; Auto vars:     Size  Location     Type
  2646 ;;  i               2   46[COMRAM] int 
  2647 ;;  w               2   43[COMRAM] int 
  2648 ;;  p               2   41[COMRAM] int 
  2649 ;;  s               1   45[COMRAM] unsigned char 
  2650 ;; Return value:  Size  Location     Type
  2651 ;;                  1    wreg      void 
  2652 ;; Registers used:
  2653 ;;		wreg, fsr1l, fsr1h, fsr2l, fsr2h, status,2, status,0, cstack
  2654 ;; Tracked objects:
  2655 ;;		On entry : 0/0
  2656 ;;		On exit  : 0/0
  2657 ;;		Unchanged: 0/0
  2658 ;; Data sizes:     COMRAM   BANK0   BANK1   BANK2   BANK3   BANK4   BANK5   BANK6   BANK7   BANK8   BANK9  BANK10  BANK1
      +1  BANK12  BANK13  BANK14  BANK15
  2659 ;;      Params:         6       0       0       0       0       0       0       0       0       0       0       0       
      +0       0       0       0       0
  2660 ;;      Locals:         9       0       0       0       0       0       0       0       0       0       0       0       
      +0       0       0       0       0
  2661 ;;      Temps:          0       0       0       0       0       0       0       0       0       0       0       0       
      +0       0       0       0       0
  2662 ;;      Totals:        15       0       0       0       0       0       0       0       0       0       0       0       
      +0       0       0       0       0
  2663 ;;Total ram usage:       15 bytes
  2664 ;; Hardware stack levels used: 1
  2665 ;; Hardware stack levels required when called: 8
  2666 ;; This function calls:
  2667 ;;		___aldiv
  2668 ;;		___almod
  2669 ;;		_abs
  2670 ;;		_pad
  2671 ;; This function is called by:
  2672 ;;		_vfpfcnvrt
  2673 ;; This function uses a non-reentrant model
  2674 ;;
  2675                           
  2676                           	psect	text5
  2677   0005B6                     __ptext5:
  2678                           	callstack 0
  2679   0005B6                     _dtoa:
  2680                           	callstack 19
  2681   0005B6                     
  2682                           ;C:\Program Files\Microchip\xc8\v2.41\pic\sources\c99\common\doprnt.c: 470: static void 
      +                          dtoa(FILE *fp, vfpf_sint_t d);C:\Program Files\Microchip\xc8\v2.41\pic\sources\c99\commo
      +                          n\doprnt.c: 471: {;C:\Program Files\Microchip\xc8\v2.41\pic\sources\c99\common\doprnt.c:
      +                           472:  char s;;C:\Program Files\Microchip\xc8\v2.41\pic\sources\c99\common\doprnt.c: 473
      +                          :     int i, p, w;;C:\Program Files\Microchip\xc8\v2.41\pic\sources\c99\common\doprnt.c:
      +                           476:     s = d < 0 ? 1 : 0;
  2683   0005B6  BE27               	btfsc	(dtoa@d+3)^0,7,c
  2684   0005B8  EFE0  F002         	goto	u4581
  2685   0005BC  EFE3  F002         	goto	u4580
  2686   0005C0                     u4581:
  2687   0005C0  0E01               	movlw	1
  2688   0005C2  EFE4  F002         	goto	u4590
  2689   0005C6                     u4580:
  2690   0005C6  0E00               	movlw	0
  2691   0005C8                     u4590:
  2692   0005C8  6E2E               	movwf	dtoa@s^0,c
  2693   0005CA                     
  2694                           ;C:\Program Files\Microchip\xc8\v2.41\pic\sources\c99\common\doprnt.c: 477:     if (s) {
  2695   0005CA  502E               	movf	dtoa@s^0,w,c
  2696   0005CC  B4D8               	btfsc	status,2,c
  2697   0005CE  EFEB  F002         	goto	u4601
  2698   0005D2  EFED  F002         	goto	u4600
  2699   0005D6                     u4601:
  2700   0005D6  EFF5  F002         	goto	l6918
  2701   0005DA                     u4600:
  2702   0005DA                     
  2703                           ;C:\Program Files\Microchip\xc8\v2.41\pic\sources\c99\common\doprnt.c: 478:         d = 
      +                          -d;
  2704   0005DA  1E27               	comf	(dtoa@d+3)^0,f,c
  2705   0005DC  1E26               	comf	(dtoa@d+2)^0,f,c
  2706   0005DE  1E25               	comf	(dtoa@d+1)^0,f,c
  2707   0005E0  6C24               	negf	dtoa@d^0,c
  2708   0005E2  0E00               	movlw	0
  2709   0005E4  2225               	addwfc	(dtoa@d+1)^0,f,c
  2710   0005E6  2226               	addwfc	(dtoa@d+2)^0,f,c
  2711   0005E8  2227               	addwfc	(dtoa@d+3)^0,f,c
  2712   0005EA                     l6918:
  2713                           
  2714                           ;C:\Program Files\Microchip\xc8\v2.41\pic\sources\c99\common\doprnt.c: 487:     p = (0 <
      +                          = prec) ? prec : 1;
  2715   0005EA  0100               	movlb	0	; () banked
  2716   0005EC  BFA1               	btfsc	(_prec+1)& (0+255),7,b
  2717   0005EE  EFFD  F002         	goto	u4610
  2718   0005F2  EFFB  F002         	goto	u4611
  2719   0005F6                     u4611:
  2720   0005F6  EF03  F003         	goto	l2063
  2721   0005FA                     u4610:
  2722   0005FA                     
  2723                           ; BSR set to: 0
  2724   0005FA  0E00               	movlw	0
  2725   0005FC  6E2B               	movwf	(dtoa@p+1)^0,c
  2726   0005FE  0E01               	movlw	1
  2727   000600  6E2A               	movwf	dtoa@p^0,c
  2728   000602  EF07  F003         	goto	l2065
  2729   000606                     l2063:
  2730                           
  2731                           ; BSR set to: 0
  2732   000606  C0A0  F02A         	movff	_prec,dtoa@p
  2733   00060A  C0A1  F02B         	movff	_prec+1,dtoa@p+1
  2734   00060E                     l2065:
  2735                           
  2736                           ; BSR set to: 0
  2737                           ;C:\Program Files\Microchip\xc8\v2.41\pic\sources\c99\common\doprnt.c: 488:     w = widt
      +                          h;
  2738   00060E  C09E  F02C         	movff	_width,dtoa@w
  2739   000612  C09F  F02D         	movff	_width+1,dtoa@w+1
  2740   000616                     
  2741                           ; BSR set to: 0
  2742                           ;C:\Program Files\Microchip\xc8\v2.41\pic\sources\c99\common\doprnt.c: 489:     if (s
  2743   000616  502E               	movf	dtoa@s^0,w,c
  2744   000618  B4D8               	btfsc	status,2,c
  2745   00061A  EF11  F003         	goto	u4621
  2746   00061E  EF13  F003         	goto	u4620
  2747   000622                     u4621:
  2748   000622  EF2A  F003         	goto	l2066
  2749   000626                     u4620:
  2750   000626                     
  2751                           ; BSR set to: 0
  2752                           ;C:\Program Files\Microchip\xc8\v2.41\pic\sources\c99\common\doprnt.c: 493:     ) {;C:\P
      +                          rogram Files\Microchip\xc8\v2.41\pic\sources\c99\common\doprnt.c: 494:         --w;
  2753   000626  062C               	decf	dtoa@w^0,f,c
  2754   000628  A0D8               	btfss	status,0,c
  2755   00062A  062D               	decf	(dtoa@w+1)^0,f,c
  2756   00062C                     
  2757                           ; BSR set to: 0
  2758                           ;C:\Program Files\Microchip\xc8\v2.41\pic\sources\c99\common\doprnt.c: 495:   s = s ? '-
      +                          ' : '+';
  2759   00062C  502E               	movf	dtoa@s^0,w,c
  2760   00062E  A4D8               	btfss	status,2,c
  2761   000630  EF1C  F003         	goto	u4631
  2762   000634  EF1E  F003         	goto	u4630
  2763   000638                     u4631:
  2764   000638  EF24  F003         	goto	l6930
  2765   00063C                     u4630:
  2766   00063C                     
  2767                           ; BSR set to: 0
  2768   00063C  0E00               	movlw	0
  2769   00063E  6E29               	movwf	(_dtoa$3496+1)^0,c
  2770   000640  0E2B               	movlw	43
  2771   000642  6E28               	movwf	_dtoa$3496^0,c
  2772   000644  EF28  F003         	goto	l6932
  2773   000648                     l6930:
  2774                           
  2775                           ; BSR set to: 0
  2776   000648  0E00               	movlw	0
  2777   00064A  6E29               	movwf	(_dtoa$3496+1)^0,c
  2778   00064C  0E2D               	movlw	45
  2779   00064E  6E28               	movwf	_dtoa$3496^0,c
  2780   000650                     l6932:
  2781                           
  2782                           ; BSR set to: 0
  2783   000650  C028  F02E         	movff	_dtoa$3496,dtoa@s
  2784   000654                     l2066:
  2785                           
  2786                           ; BSR set to: 0
  2787                           ;C:\Program Files\Microchip\xc8\v2.41\pic\sources\c99\common\doprnt.c: 505:     i = size
      +                          of(dbuf) - 1;
  2788   000654  0E00               	movlw	0
  2789   000656  6E30               	movwf	(dtoa@i+1)^0,c
  2790   000658  0E1F               	movlw	31
  2791   00065A  6E2F               	movwf	dtoa@i^0,c
  2792   00065C                     
  2793                           ; BSR set to: 0
  2794                           ;C:\Program Files\Microchip\xc8\v2.41\pic\sources\c99\common\doprnt.c: 506:     dbuf[i] 
      +                          = '\0';
  2795   00065C  0E00               	movlw	0
  2796   00065E  6FCB               	movwf	(_dbuf+31)& (0+255),b
  2797                           
  2798                           ;C:\Program Files\Microchip\xc8\v2.41\pic\sources\c99\common\doprnt.c: 507:     while (!
      +                          (i < 1) && (d || (0 < p)
  2799   000660  EF76  F003         	goto	l6946
  2800   000664                     l6936:
  2801                           
  2802                           ;C:\Program Files\Microchip\xc8\v2.41\pic\sources\c99\common\doprnt.c: 511:     )) {;C:\
      +                          Program Files\Microchip\xc8\v2.41\pic\sources\c99\common\doprnt.c: 512:         --i;
  2803   000664  062F               	decf	dtoa@i^0,f,c
  2804   000666  A0D8               	btfss	status,0,c
  2805   000668  0630               	decf	(dtoa@i+1)^0,f,c
  2806   00066A                     
  2807                           ;C:\Program Files\Microchip\xc8\v2.41\pic\sources\c99\common\doprnt.c: 513:         dbuf
      +                          [i] = (char)((int)'0' + abs(d % 10));
  2808   00066A  0EAC               	movlw	low _dbuf
  2809   00066C  242F               	addwf	dtoa@i^0,w,c
  2810   00066E  6ED9               	movwf	fsr2l,c
  2811   000670  0E00               	movlw	high _dbuf
  2812   000672  2030               	addwfc	(dtoa@i+1)^0,w,c
  2813   000674  6EDA               	movwf	fsr2h,c
  2814   000676  C024  F005         	movff	dtoa@d,___almod@dividend
  2815   00067A  C025  F006         	movff	dtoa@d+1,___almod@dividend+1
  2816   00067E  C026  F007         	movff	dtoa@d+2,___almod@dividend+2
  2817   000682  C027  F008         	movff	dtoa@d+3,___almod@dividend+3
  2818   000686  0E0A               	movlw	10
  2819   000688  6E09               	movwf	___almod@divisor^0,c
  2820   00068A  0E00               	movlw	0
  2821   00068C  6E0A               	movwf	(___almod@divisor+1)^0,c
  2822   00068E  0E00               	movlw	0
  2823   000690  6E0B               	movwf	(___almod@divisor+2)^0,c
  2824   000692  0E00               	movlw	0
  2825   000694  6E0C               	movwf	(___almod@divisor+3)^0,c
  2826   000696  EC43  F007         	call	___almod	;wreg free
  2827   00069A  C005  F00F         	movff	?___almod,abs@a
  2828   00069E  C006  F010         	movff	?___almod+1,abs@a+1
  2829   0006A2  ECD1  F00B         	call	_abs	;wreg free
  2830   0006A6  500F               	movf	?_abs^0,w,c
  2831   0006A8  0F30               	addlw	48
  2832   0006AA  6EDF               	movwf	indf2,c
  2833   0006AC                     
  2834                           ;C:\Program Files\Microchip\xc8\v2.41\pic\sources\c99\common\doprnt.c: 514:         --p;
  2835   0006AC  062A               	decf	dtoa@p^0,f,c
  2836   0006AE  A0D8               	btfss	status,0,c
  2837   0006B0  062B               	decf	(dtoa@p+1)^0,f,c
  2838   0006B2                     
  2839                           ;C:\Program Files\Microchip\xc8\v2.41\pic\sources\c99\common\doprnt.c: 515:         --w;
  2840   0006B2  062C               	decf	dtoa@w^0,f,c
  2841   0006B4  A0D8               	btfss	status,0,c
  2842   0006B6  062D               	decf	(dtoa@w+1)^0,f,c
  2843   0006B8                     
  2844                           ;C:\Program Files\Microchip\xc8\v2.41\pic\sources\c99\common\doprnt.c: 516:         d = 
      +                          d / 10;
  2845   0006B8  C024  F005         	movff	dtoa@d,___aldiv@dividend
  2846   0006BC  C025  F006         	movff	dtoa@d+1,___aldiv@dividend+1
  2847   0006C0  C026  F007         	movff	dtoa@d+2,___aldiv@dividend+2
  2848   0006C4  C027  F008         	movff	dtoa@d+3,___aldiv@dividend+3
  2849   0006C8  0E0A               	movlw	10
  2850   0006CA  6E09               	movwf	___aldiv@divisor^0,c
  2851   0006CC  0E00               	movlw	0
  2852   0006CE  6E0A               	movwf	(___aldiv@divisor+1)^0,c
  2853   0006D0  0E00               	movlw	0
  2854   0006D2  6E0B               	movwf	(___aldiv@divisor+2)^0,c
  2855   0006D4  0E00               	movlw	0
  2856   0006D6  6E0C               	movwf	(___aldiv@divisor+3)^0,c
  2857   0006D8  ECCF  F005         	call	___aldiv	;wreg free
  2858   0006DC  C005  F024         	movff	?___aldiv,dtoa@d
  2859   0006E0  C006  F025         	movff	?___aldiv+1,dtoa@d+1
  2860   0006E4  C007  F026         	movff	?___aldiv+2,dtoa@d+2
  2861   0006E8  C008  F027         	movff	?___aldiv+3,dtoa@d+3
  2862   0006EC                     l6946:
  2863                           
  2864                           ;C:\Program Files\Microchip\xc8\v2.41\pic\sources\c99\common\doprnt.c: 507:     while (!
      +                          (i < 1) && (d || (0 < p)
  2865   0006EC  BE30               	btfsc	(dtoa@i+1)^0,7,c
  2866   0006EE  EF81  F003         	goto	u4641
  2867   0006F2  5030               	movf	(dtoa@i+1)^0,w,c
  2868   0006F4  E108               	bnz	u4640
  2869   0006F6  042F               	decf	dtoa@i^0,w,c
  2870   0006F8  A0D8               	btfss	status,0,c
  2871   0006FA  EF81  F003         	goto	u4641
  2872   0006FE  EF83  F003         	goto	u4640
  2873   000702                     u4641:
  2874   000702  EF9B  F003         	goto	l6952
  2875   000706                     u4640:
  2876   000706  5024               	movf	dtoa@d^0,w,c
  2877   000708  1025               	iorwf	(dtoa@d+1)^0,w,c
  2878   00070A  1026               	iorwf	(dtoa@d+2)^0,w,c
  2879   00070C  1027               	iorwf	(dtoa@d+3)^0,w,c
  2880   00070E  A4D8               	btfss	status,2,c
  2881   000710  EF8C  F003         	goto	u4651
  2882   000714  EF8E  F003         	goto	u4650
  2883   000718                     u4651:
  2884   000718  EF32  F003         	goto	l6936
  2885   00071C                     u4650:
  2886   00071C  BE2B               	btfsc	(dtoa@p+1)^0,7,c
  2887   00071E  EF9B  F003         	goto	u4660
  2888   000722  502B               	movf	(dtoa@p+1)^0,w,c
  2889   000724  E106               	bnz	u4661
  2890   000726  042A               	decf	dtoa@p^0,w,c
  2891   000728  B0D8               	btfsc	status,0,c
  2892   00072A  EF99  F003         	goto	u4661
  2893   00072E  EF9B  F003         	goto	u4660
  2894   000732                     u4661:
  2895   000732  EF32  F003         	goto	l6936
  2896   000736                     u4660:
  2897   000736                     l6952:
  2898                           
  2899                           ;C:\Program Files\Microchip\xc8\v2.41\pic\sources\c99\common\doprnt.c: 520:     if (s !=
      +                           0) {
  2900   000736  502E               	movf	dtoa@s^0,w,c
  2901   000738  B4D8               	btfsc	status,2,c
  2902   00073A  EFA1  F003         	goto	u4671
  2903   00073E  EFA3  F003         	goto	u4670
  2904   000742                     u4671:
  2905   000742  EFAE  F003         	goto	l6958
  2906   000746                     u4670:
  2907   000746                     
  2908                           ;C:\Program Files\Microchip\xc8\v2.41\pic\sources\c99\common\doprnt.c: 521:         --i;
  2909   000746  062F               	decf	dtoa@i^0,f,c
  2910   000748  A0D8               	btfss	status,0,c
  2911   00074A  0630               	decf	(dtoa@i+1)^0,f,c
  2912   00074C                     
  2913                           ;C:\Program Files\Microchip\xc8\v2.41\pic\sources\c99\common\doprnt.c: 522:         dbuf
      +                          [i] = s;
  2914   00074C  0EAC               	movlw	low _dbuf
  2915   00074E  242F               	addwf	dtoa@i^0,w,c
  2916   000750  6ED9               	movwf	fsr2l,c
  2917   000752  0E00               	movlw	high _dbuf
  2918   000754  2030               	addwfc	(dtoa@i+1)^0,w,c
  2919   000756  6EDA               	movwf	fsr2h,c
  2920   000758  C02E  FFDF         	movff	dtoa@s,indf2
  2921   00075C                     l6958:
  2922                           
  2923                           ;C:\Program Files\Microchip\xc8\v2.41\pic\sources\c99\common\doprnt.c: 526:     return (
      +                          void) pad(fp, &dbuf[i], w);
  2924   00075C  C022  F017         	movff	dtoa@fp,pad@fp
  2925   000760  C023  F018         	movff	dtoa@fp+1,pad@fp+1
  2926   000764  0EAC               	movlw	low _dbuf
  2927   000766  242F               	addwf	dtoa@i^0,w,c
  2928   000768  6E19               	movwf	pad@buf^0,c
  2929   00076A  0E00               	movlw	high _dbuf
  2930   00076C  2030               	addwfc	(dtoa@i+1)^0,w,c
  2931   00076E  6E1A               	movwf	(pad@buf+1)^0,c
  2932   000770  C02C  F01B         	movff	dtoa@w,pad@p
  2933   000774  C02D  F01C         	movff	dtoa@w+1,pad@p+1
  2934   000778  EC3E  F00A         	call	_pad	;wreg free
  2935   00077C  0012               	return		;funcret
  2936   00077E                     __end_of_dtoa:
  2937                           	callstack 0
  2938                           
  2939 ;; *************** function _pad *****************
  2940 ;; Defined at:
  2941 ;;		line 152 in file "C:\Program Files\Microchip\xc8\v2.41\pic\sources\c99\common\doprnt.c"
  2942 ;; Parameters:    Size  Location     Type
  2943 ;;  fp              2   22[COMRAM] PTR struct _IO_FILE
  2944 ;;		 -> NULL(0), 
  2945 ;;  buf             2   24[COMRAM] PTR unsigned char 
  2946 ;;		 -> dbuf(32), 
  2947 ;;  p               2   26[COMRAM] int 
  2948 ;; Auto vars:     Size  Location     Type
  2949 ;;  w               2   31[COMRAM] int 
  2950 ;;  i               2   29[COMRAM] int 
  2951 ;; Return value:  Size  Location     Type
  2952 ;;                  1    wreg      void 
  2953 ;; Registers used:
  2954 ;;		wreg, fsr1l, fsr1h, fsr2l, fsr2h, status,2, status,0, cstack
  2955 ;; Tracked objects:
  2956 ;;		On entry : 0/0
  2957 ;;		On exit  : 0/0
  2958 ;;		Unchanged: 0/0
  2959 ;; Data sizes:     COMRAM   BANK0   BANK1   BANK2   BANK3   BANK4   BANK5   BANK6   BANK7   BANK8   BANK9  BANK10  BANK1
      +1  BANK12  BANK13  BANK14  BANK15
  2960 ;;      Params:         6       0       0       0       0       0       0       0       0       0       0       0       
      +0       0       0       0       0
  2961 ;;      Locals:         4       0       0       0       0       0       0       0       0       0       0       0       
      +0       0       0       0       0
  2962 ;;      Temps:          1       0       0       0       0       0       0       0       0       0       0       0       
      +0       0       0       0       0
  2963 ;;      Totals:        11       0       0       0       0       0       0       0       0       0       0       0       
      +0       0       0       0       0
  2964 ;;Total ram usage:       11 bytes
  2965 ;; Hardware stack levels used: 1
  2966 ;; Hardware stack levels required when called: 7
  2967 ;; This function calls:
  2968 ;;		_fputc
  2969 ;;		_fputs
  2970 ;; This function is called by:
  2971 ;;		_dtoa
  2972 ;;		_xtoa
  2973 ;; This function uses a non-reentrant model
  2974 ;;
  2975                           
  2976                           	psect	text6
  2977   00147C                     __ptext6:
  2978                           	callstack 0
  2979   00147C                     _pad:
  2980                           	callstack 19
  2981   00147C                     
  2982                           ;C:\Program Files\Microchip\xc8\v2.41\pic\sources\c99\common\doprnt.c: 152: static void 
      +                          pad(FILE *fp, char *buf, int p);C:\Program Files\Microchip\xc8\v2.41\pic\sources\c99\com
      +                          mon\doprnt.c: 153: {;C:\Program Files\Microchip\xc8\v2.41\pic\sources\c99\common\doprnt.
      +                          c: 154:     int i, w;;C:\Program Files\Microchip\xc8\v2.41\pic\sources\c99\common\doprnt
      +                          .c: 164:     w = (p < 0) ? 0 : p;
  2983   00147C  BE1C               	btfsc	(pad@p+1)^0,7,c
  2984   00147E  EF43  F00A         	goto	u4551
  2985   001482  EF45  F00A         	goto	u4550
  2986   001486                     u4551:
  2987   001486  EF4B  F00A         	goto	l6898
  2988   00148A                     u4550:
  2989   00148A  C01B  F020         	movff	pad@p,pad@w
  2990   00148E  C01C  F021         	movff	pad@p+1,pad@w+1
  2991   001492  EF4F  F00A         	goto	l2054
  2992   001496                     l6898:
  2993   001496  0E00               	movlw	0
  2994   001498  6E21               	movwf	(pad@w+1)^0,c
  2995   00149A  0E00               	movlw	0
  2996   00149C  6E20               	movwf	pad@w^0,c
  2997   00149E                     l2054:
  2998                           
  2999                           ;C:\Program Files\Microchip\xc8\v2.41\pic\sources\c99\common\doprnt.c: 165:     i = 0;
  3000   00149E  0E00               	movlw	0
  3001   0014A0  6E1F               	movwf	(pad@i+1)^0,c
  3002   0014A2  0E00               	movlw	0
  3003   0014A4  6E1E               	movwf	pad@i^0,c
  3004                           
  3005                           ;C:\Program Files\Microchip\xc8\v2.41\pic\sources\c99\common\doprnt.c: 166:     while (i
      +                           < w) {
  3006   0014A6  EF61  F00A         	goto	l6904
  3007   0014AA                     l6900:
  3008                           
  3009                           ;C:\Program Files\Microchip\xc8\v2.41\pic\sources\c99\common\doprnt.c: 167:         fput
      +                          c(' ', fp);
  3010   0014AA  0E00               	movlw	0
  3011   0014AC  6E08               	movwf	(fputc@c+1)^0,c
  3012   0014AE  0E20               	movlw	32
  3013   0014B0  6E07               	movwf	fputc@c^0,c
  3014   0014B2  C017  F009         	movff	pad@fp,fputc@fp
  3015   0014B6  C018  F00A         	movff	pad@fp+1,fputc@fp+1
  3016   0014BA  EC20  F008         	call	_fputc	;wreg free
  3017   0014BE                     
  3018                           ;C:\Program Files\Microchip\xc8\v2.41\pic\sources\c99\common\doprnt.c: 168:         ++i;
  3019   0014BE  4A1E               	infsnz	pad@i^0,f,c
  3020   0014C0  2A1F               	incf	(pad@i+1)^0,f,c
  3021   0014C2                     l6904:
  3022                           
  3023                           ;C:\Program Files\Microchip\xc8\v2.41\pic\sources\c99\common\doprnt.c: 166:     while (i
      +                           < w) {
  3024   0014C2  5020               	movf	pad@w^0,w,c
  3025   0014C4  5C1E               	subwf	pad@i^0,w,c
  3026   0014C6  501F               	movf	(pad@i+1)^0,w,c
  3027   0014C8  0A80               	xorlw	128
  3028   0014CA  6E1D               	movwf	??_pad^0,c
  3029   0014CC  5021               	movf	(pad@w+1)^0,w,c
  3030   0014CE  0A80               	xorlw	128
  3031   0014D0  581D               	subwfb	??_pad^0,w,c
  3032   0014D2  A0D8               	btfss	status,0,c
  3033   0014D4  EF6E  F00A         	goto	u4561
  3034   0014D8  EF70  F00A         	goto	u4560
  3035   0014DC                     u4561:
  3036   0014DC  EF55  F00A         	goto	l6900
  3037   0014E0                     u4560:
  3038   0014E0                     
  3039                           ;C:\Program Files\Microchip\xc8\v2.41\pic\sources\c99\common\doprnt.c: 175:         fput
      +                          s((const char *)buf, fp);
  3040   0014E0  C019  F010         	movff	pad@buf,fputs@s
  3041   0014E4  C01A  F011         	movff	pad@buf+1,fputs@s+1
  3042   0014E8  C017  F012         	movff	pad@fp,fputs@fp
  3043   0014EC  C018  F013         	movff	pad@fp+1,fputs@fp+1
  3044   0014F0  ECAF  F00B         	call	_fputs	;wreg free
  3045   0014F4  0012               	return		;funcret
  3046   0014F6                     __end_of_pad:
  3047                           	callstack 0
  3048                           
  3049 ;; *************** function _fputs *****************
  3050 ;; Defined at:
  3051 ;;		line 8 in file "C:\Program Files\Microchip\xc8\v2.41\pic\sources\c99\common\nf_fputs.c"
  3052 ;; Parameters:    Size  Location     Type
  3053 ;;  s               2   15[COMRAM] PTR const unsigned char 
  3054 ;;		 -> dbuf(32), 
  3055 ;;  fp              2   17[COMRAM] PTR struct _IO_FILE
  3056 ;;		 -> NULL(0), 
  3057 ;; Auto vars:     Size  Location     Type
  3058 ;;  i               2   20[COMRAM] int 
  3059 ;;  c               1   19[COMRAM] unsigned char 
  3060 ;; Return value:  Size  Location     Type
  3061 ;;                  2   15[COMRAM] int 
  3062 ;; Registers used:
  3063 ;;		wreg, fsr1l, fsr1h, fsr2l, fsr2h, status,2, status,0, cstack
  3064 ;; Tracked objects:
  3065 ;;		On entry : 0/0
  3066 ;;		On exit  : 0/0
  3067 ;;		Unchanged: 0/0
  3068 ;; Data sizes:     COMRAM   BANK0   BANK1   BANK2   BANK3   BANK4   BANK5   BANK6   BANK7   BANK8   BANK9  BANK10  BANK1
      +1  BANK12  BANK13  BANK14  BANK15
  3069 ;;      Params:         4       0       0       0       0       0       0       0       0       0       0       0       
      +0       0       0       0       0
  3070 ;;      Locals:         3       0       0       0       0       0       0       0       0       0       0       0       
      +0       0       0       0       0
  3071 ;;      Temps:          0       0       0       0       0       0       0       0       0       0       0       0       
      +0       0       0       0       0
  3072 ;;      Totals:         7       0       0       0       0       0       0       0       0       0       0       0       
      +0       0       0       0       0
  3073 ;;Total ram usage:        7 bytes
  3074 ;; Hardware stack levels used: 1
  3075 ;; Hardware stack levels required when called: 6
  3076 ;; This function calls:
  3077 ;;		_fputc
  3078 ;; This function is called by:
  3079 ;;		_pad
  3080 ;; This function uses a non-reentrant model
  3081 ;;
  3082                           
  3083                           	psect	text7
  3084   00175E                     __ptext7:
  3085                           	callstack 0
  3086   00175E                     _fputs:
  3087                           	callstack 19
  3088   00175E  0E00               	movlw	0
  3089   001760  6E16               	movwf	(fputs@i+1)^0,c
  3090   001762  0E00               	movlw	0
  3091   001764  6E15               	movwf	fputs@i^0,c
  3092   001766  EFC0  F00B         	goto	l6812
  3093   00176A                     l6808:
  3094   00176A  C014  F007         	movff	fputs@c,fputc@c
  3095   00176E  6A08               	clrf	(fputc@c+1)^0,c
  3096   001770  C012  F009         	movff	fputs@fp,fputc@fp
  3097   001774  C013  F00A         	movff	fputs@fp+1,fputc@fp+1
  3098   001778  EC20  F008         	call	_fputc	;wreg free
  3099   00177C  4A15               	infsnz	fputs@i^0,f,c
  3100   00177E  2A16               	incf	(fputs@i+1)^0,f,c
  3101   001780                     l6812:
  3102   001780  5015               	movf	fputs@i^0,w,c
  3103   001782  2410               	addwf	fputs@s^0,w,c
  3104   001784  6ED9               	movwf	fsr2l,c
  3105   001786  5016               	movf	(fputs@i+1)^0,w,c
  3106   001788  2011               	addwfc	(fputs@s+1)^0,w,c
  3107   00178A  6EDA               	movwf	fsr2h,c
  3108   00178C  50DF               	movf	indf2,w,c
  3109   00178E  6E14               	movwf	fputs@c^0,c
  3110   001790  5014               	movf	fputs@c^0,w,c
  3111   001792  A4D8               	btfss	status,2,c
  3112   001794  EFCE  F00B         	goto	u4421
  3113   001798  EFD0  F00B         	goto	u4420
  3114   00179C                     u4421:
  3115   00179C  EFB5  F00B         	goto	l6808
  3116   0017A0                     u4420:
  3117   0017A0  0012               	return		;funcret
  3118   0017A2                     __end_of_fputs:
  3119                           	callstack 0
  3120                           
  3121 ;; *************** function _fputc *****************
  3122 ;; Defined at:
  3123 ;;		line 8 in file "C:\Program Files\Microchip\xc8\v2.41\pic\sources\c99\common\nf_fputc.c"
  3124 ;; Parameters:    Size  Location     Type
  3125 ;;  c               2    6[COMRAM] int 
  3126 ;;  fp              2    8[COMRAM] PTR struct _IO_FILE
  3127 ;;		 -> NULL(0), 
  3128 ;; Auto vars:     Size  Location     Type
  3129 ;;		None
  3130 ;; Return value:  Size  Location     Type
  3131 ;;                  2    6[COMRAM] int 
  3132 ;; Registers used:
  3133 ;;		wreg, fsr1l, fsr1h, fsr2l, fsr2h, status,2, status,0, cstack
  3134 ;; Tracked objects:
  3135 ;;		On entry : 0/0
  3136 ;;		On exit  : 0/0
  3137 ;;		Unchanged: 0/0
  3138 ;; Data sizes:     COMRAM   BANK0   BANK1   BANK2   BANK3   BANK4   BANK5   BANK6   BANK7   BANK8   BANK9  BANK10  BANK1
      +1  BANK12  BANK13  BANK14  BANK15
  3139 ;;      Params:         4       0       0       0       0       0       0       0       0       0       0       0       
      +0       0       0       0       0
  3140 ;;      Locals:         0       0       0       0       0       0       0       0       0       0       0       0       
      +0       0       0       0       0
  3141 ;;      Temps:          5       0       0       0       0       0       0       0       0       0       0       0       
      +0       0       0       0       0
  3142 ;;      Totals:         9       0       0       0       0       0       0       0       0       0       0       0       
      +0       0       0       0       0
  3143 ;;Total ram usage:        9 bytes
  3144 ;; Hardware stack levels used: 1
  3145 ;; Hardware stack levels required when called: 5
  3146 ;; This function calls:
  3147 ;;		_putch
  3148 ;; This function is called by:
  3149 ;;		_pad
  3150 ;;		_vfpfcnvrt
  3151 ;;		_fputs
  3152 ;; This function uses a non-reentrant model
  3153 ;;
  3154                           
  3155                           	psect	text8
  3156   001040                     __ptext8:
  3157                           	callstack 0
  3158   001040                     _fputc:
  3159                           	callstack 19
  3160   001040  5009               	movf	fputc@fp^0,w,c
  3161   001042  100A               	iorwf	(fputc@fp+1)^0,w,c
  3162   001044  B4D8               	btfsc	status,2,c
  3163   001046  EF27  F008         	goto	u4381
  3164   00104A  EF29  F008         	goto	u4380
  3165   00104E                     u4381:
  3166   00104E  EF32  F008         	goto	l6796
  3167   001052                     u4380:
  3168   001052  5009               	movf	fputc@fp^0,w,c
  3169   001054  100A               	iorwf	(fputc@fp+1)^0,w,c
  3170   001056  A4D8               	btfss	status,2,c
  3171   001058  EF30  F008         	goto	u4391
  3172   00105C  EF32  F008         	goto	u4390
  3173   001060                     u4391:
  3174   001060  EF37  F008         	goto	l6798
  3175   001064                     u4390:
  3176   001064                     l6796:
  3177   001064  5007               	movf	fputc@c^0,w,c
  3178   001066  ECF4  F00C         	call	_putch
  3179   00106A  EF84  F008         	goto	l2146
  3180   00106E                     l6798:
  3181   00106E  EE20 F00A          	lfsr	2,10
  3182   001072  5009               	movf	fputc@fp^0,w,c
  3183   001074  26D9               	addwf	fsr2l,f,c
  3184   001076  500A               	movf	(fputc@fp+1)^0,w,c
  3185   001078  22DA               	addwfc	fsr2h,f,c
  3186   00107A  50DE               	movf	postinc2,w,c
  3187   00107C  10DE               	iorwf	postinc2,w,c
  3188   00107E  B4D8               	btfsc	status,2,c
  3189   001080  EF44  F008         	goto	u4401
  3190   001084  EF46  F008         	goto	u4400
  3191   001088                     u4401:
  3192   001088  EF61  F008         	goto	l6802
  3193   00108C                     u4400:
  3194   00108C  EE20 F00A          	lfsr	2,10
  3195   001090  5009               	movf	fputc@fp^0,w,c
  3196   001092  26D9               	addwf	fsr2l,f,c
  3197   001094  500A               	movf	(fputc@fp+1)^0,w,c
  3198   001096  22DA               	addwfc	fsr2h,f,c
  3199   001098  EE10 F003          	lfsr	1,3
  3200   00109C  5009               	movf	fputc@fp^0,w,c
  3201   00109E  26E1               	addwf	fsr1l,f,c
  3202   0010A0  500A               	movf	(fputc@fp+1)^0,w,c
  3203   0010A2  22E2               	addwfc	fsr1h,f,c
  3204   0010A4  50DE               	movf	postinc2,w,c
  3205   0010A6  5CE6               	subwf	postinc1,w,c
  3206   0010A8  50E6               	movf	postinc1,w,c
  3207   0010AA  0A80               	xorlw	128
  3208   0010AC  6E0F               	movwf	(??_fputc+4)^0,c
  3209   0010AE  50DE               	movf	postinc2,w,c
  3210   0010B0  0A80               	xorlw	128
  3211   0010B2  580F               	subwfb	(??_fputc+4)^0,w,c
  3212   0010B4  B0D8               	btfsc	status,0,c
  3213   0010B6  EF5F  F008         	goto	u4411
  3214   0010BA  EF61  F008         	goto	u4410
  3215   0010BE                     u4411:
  3216   0010BE  EF84  F008         	goto	l2146
  3217   0010C2                     u4410:
  3218   0010C2                     l6802:
  3219   0010C2  EE20 F003          	lfsr	2,3
  3220   0010C6  5009               	movf	fputc@fp^0,w,c
  3221   0010C8  26D9               	addwf	fsr2l,f,c
  3222   0010CA  500A               	movf	(fputc@fp+1)^0,w,c
  3223   0010CC  22DA               	addwfc	fsr2h,f,c
  3224   0010CE  CFDE F00B          	movff	postinc2,??_fputc
  3225   0010D2  CFDD F00C          	movff	postdec2,??_fputc+1
  3226   0010D6  C009  FFD9         	movff	fputc@fp,fsr2l
  3227   0010DA  C00A  FFDA         	movff	fputc@fp+1,fsr2h
  3228   0010DE  CFDE F00D          	movff	postinc2,??_fputc+2
  3229   0010E2  CFDD F00E          	movff	postdec2,??_fputc+3
  3230   0010E6  500B               	movf	??_fputc^0,w,c
  3231   0010E8  240D               	addwf	(??_fputc+2)^0,w,c
  3232   0010EA  6ED9               	movwf	fsr2l,c
  3233   0010EC  500C               	movf	(??_fputc+1)^0,w,c
  3234   0010EE  200E               	addwfc	(??_fputc+3)^0,w,c
  3235   0010F0  6EDA               	movwf	fsr2h,c
  3236   0010F2  C007  FFDF         	movff	fputc@c,indf2
  3237   0010F6  EE20 F003          	lfsr	2,3
  3238   0010FA  5009               	movf	fputc@fp^0,w,c
  3239   0010FC  26D9               	addwf	fsr2l,f,c
  3240   0010FE  500A               	movf	(fputc@fp+1)^0,w,c
  3241   001100  22DA               	addwfc	fsr2h,f,c
  3242   001102  2ADE               	incf	postinc2,f,c
  3243   001104  0E00               	movlw	0
  3244   001106  22DD               	addwfc	postdec2,f,c
  3245   001108                     l2146:
  3246   001108  0012               	return		;funcret
  3247   00110A                     __end_of_fputc:
  3248                           	callstack 0
  3249                           
  3250 ;; *************** function _putch *****************
  3251 ;; Defined at:
  3252 ;;		line 146 in file "mcc_generated_files/eusart1.c"
  3253 ;; Parameters:    Size  Location     Type
  3254 ;;  txData          1    wreg     unsigned char 
  3255 ;; Auto vars:     Size  Location     Type
  3256 ;;  txData          1    5[COMRAM] unsigned char 
  3257 ;; Return value:  Size  Location     Type
  3258 ;;                  1    wreg      void 
  3259 ;; Registers used:
  3260 ;;		wreg, status,2, cstack
  3261 ;; Tracked objects:
  3262 ;;		On entry : 0/0
  3263 ;;		On exit  : 0/0
  3264 ;;		Unchanged: 0/0
  3265 ;; Data sizes:     COMRAM   BANK0   BANK1   BANK2   BANK3   BANK4   BANK5   BANK6   BANK7   BANK8   BANK9  BANK10  BANK1
      +1  BANK12  BANK13  BANK14  BANK15
  3266 ;;      Params:         0       0       0       0       0       0       0       0       0       0       0       0       
      +0       0       0       0       0
  3267 ;;      Locals:         1       0       0       0       0       0       0       0       0       0       0       0       
      +0       0       0       0       0
  3268 ;;      Temps:          0       0       0       0       0       0       0       0       0       0       0       0       
      +0       0       0       0       0
  3269 ;;      Totals:         1       0       0       0       0       0       0       0       0       0       0       0       
      +0       0       0       0       0
  3270 ;;Total ram usage:        1 bytes
  3271 ;; Hardware stack levels used: 1
  3272 ;; Hardware stack levels required when called: 4
  3273 ;; This function calls:
  3274 ;;		_EUSART1_Write
  3275 ;; This function is called by:
  3276 ;;		_fputc
  3277 ;; This function uses a non-reentrant model
  3278 ;;
  3279                           
  3280                           	psect	text9
  3281   0019E8                     __ptext9:
  3282                           	callstack 0
  3283   0019E8                     _putch:
  3284                           	callstack 19
  3285                           
  3286                           ;incstack = 0
  3287                           ;putch@txData stored from wreg
  3288   0019E8  6E06               	movwf	putch@txData^0,c
  3289   0019EA                     
  3290                           ;mcc_generated_files/eusart1.c: 146: void putch(char txData);mcc_generated_files/eusart1
      +                          .c: 147: {;mcc_generated_files/eusart1.c: 148:     EUSART1_Write(txData);
  3291   0019EA  5006               	movf	putch@txData^0,w,c
  3292   0019EC  ECC1  F00C         	call	_EUSART1_Write
  3293   0019F0  0012               	return		;funcret
  3294   0019F2                     __end_of_putch:
  3295                           	callstack 0
  3296                           
  3297 ;; *************** function _EUSART1_Write *****************
  3298 ;; Defined at:
  3299 ;;		line 132 in file "mcc_generated_files/eusart1.c"
  3300 ;; Parameters:    Size  Location     Type
  3301 ;;  txData          1    wreg     unsigned char 
  3302 ;; Auto vars:     Size  Location     Type
  3303 ;;  txData          1    4[COMRAM] unsigned char 
  3304 ;; Return value:  Size  Location     Type
  3305 ;;                  1    wreg      void 
  3306 ;; Registers used:
  3307 ;;		wreg
  3308 ;; Tracked objects:
  3309 ;;		On entry : 0/0
  3310 ;;		On exit  : 0/0
  3311 ;;		Unchanged: 0/0
  3312 ;; Data sizes:     COMRAM   BANK0   BANK1   BANK2   BANK3   BANK4   BANK5   BANK6   BANK7   BANK8   BANK9  BANK10  BANK1
      +1  BANK12  BANK13  BANK14  BANK15
  3313 ;;      Params:         0       0       0       0       0       0       0       0       0       0       0       0       
      +0       0       0       0       0
  3314 ;;      Locals:         1       0       0       0       0       0       0       0       0       0       0       0       
      +0       0       0       0       0
  3315 ;;      Temps:          0       0       0       0       0       0       0       0       0       0       0       0       
      +0       0       0       0       0
  3316 ;;      Totals:         1       0       0       0       0       0       0       0       0       0       0       0       
      +0       0       0       0       0
  3317 ;;Total ram usage:        1 bytes
  3318 ;; Hardware stack levels used: 1
  3319 ;; Hardware stack levels required when called: 3
  3320 ;; This function calls:
  3321 ;;		Nothing
  3322 ;; This function is called by:
  3323 ;;		_putch
  3324 ;; This function uses a non-reentrant model
  3325 ;;
  3326                           
  3327                           	psect	text10
  3328   001982                     __ptext10:
  3329                           	callstack 0
  3330   001982                     _EUSART1_Write:
  3331                           	callstack 19
  3332                           
  3333                           ;incstack = 0
  3334                           ;EUSART1_Write@txData stored from wreg
  3335   001982  6E05               	movwf	EUSART1_Write@txData^0,c
  3336   001984                     l225:
  3337                           
  3338                           ;mcc_generated_files/eusart1.c: 134:     while(0 == PIR1bits.TX1IF)
  3339   001984  A89E               	btfss	158,4,c	;volatile
  3340   001986  EFC7  F00C         	goto	u4371
  3341   00198A  EFC9  F00C         	goto	u4370
  3342   00198E                     u4371:
  3343   00198E  EFC2  F00C         	goto	l225
  3344   001992                     u4370:
  3345   001992                     
  3346                           ;mcc_generated_files/eusart1.c: 138:     TXREG1 = txData;
  3347   001992  C005  FFAD         	movff	EUSART1_Write@txData,4013	;volatile
  3348   001996  0012               	return		;funcret
  3349   001998                     __end_of_EUSART1_Write:
  3350                           	callstack 0
  3351                           
  3352 ;; *************** function _abs *****************
  3353 ;; Defined at:
  3354 ;;		line 1 in file "C:\Program Files\Microchip\xc8\v2.41\pic\sources\c99\common\abs.c"
  3355 ;; Parameters:    Size  Location     Type
  3356 ;;  a               2   14[COMRAM] int 
  3357 ;; Auto vars:     Size  Location     Type
  3358 ;;		None
  3359 ;; Return value:  Size  Location     Type
  3360 ;;                  2   14[COMRAM] int 
  3361 ;; Registers used:
  3362 ;;		wreg, status,2, status,0
  3363 ;; Tracked objects:
  3364 ;;		On entry : 0/0
  3365 ;;		On exit  : 0/0
  3366 ;;		Unchanged: 0/0
  3367 ;; Data sizes:     COMRAM   BANK0   BANK1   BANK2   BANK3   BANK4   BANK5   BANK6   BANK7   BANK8   BANK9  BANK10  BANK1
      +1  BANK12  BANK13  BANK14  BANK15
  3368 ;;      Params:         2       0       0       0       0       0       0       0       0       0       0       0       
      +0       0       0       0       0
  3369 ;;      Locals:         0       0       0       0       0       0       0       0       0       0       0       0       
      +0       0       0       0       0
  3370 ;;      Temps:          2       0       0       0       0       0       0       0       0       0       0       0       
      +0       0       0       0       0
  3371 ;;      Totals:         4       0       0       0       0       0       0       0       0       0       0       0       
      +0       0       0       0       0
  3372 ;;Total ram usage:        4 bytes
  3373 ;; Hardware stack levels used: 1
  3374 ;; Hardware stack levels required when called: 3
  3375 ;; This function calls:
  3376 ;;		Nothing
  3377 ;; This function is called by:
  3378 ;;		_dtoa
  3379 ;; This function uses a non-reentrant model
  3380 ;;
  3381                           
  3382                           	psect	text11
  3383   0017A2                     __ptext11:
  3384                           	callstack 0
  3385   0017A2                     _abs:
  3386                           	callstack 23
  3387   0017A2  BE10               	btfsc	(abs@a+1)^0,7,c
  3388   0017A4  EFDE  F00B         	goto	u4570
  3389   0017A8  5010               	movf	(abs@a+1)^0,w,c
  3390   0017AA  E106               	bnz	u4571
  3391   0017AC  040F               	decf	abs@a^0,w,c
  3392   0017AE  B0D8               	btfsc	status,0,c
  3393   0017B0  EFDC  F00B         	goto	u4571
  3394   0017B4  EFDE  F00B         	goto	u4570
  3395   0017B8                     u4571:
  3396   0017B8  EFEC  F00B         	goto	l2131
  3397   0017BC                     u4570:
  3398   0017BC  C00F  F011         	movff	abs@a,??_abs
  3399   0017C0  C010  F012         	movff	abs@a+1,??_abs+1
  3400   0017C4  1E11               	comf	??_abs^0,f,c
  3401   0017C6  1E12               	comf	(??_abs+1)^0,f,c
  3402   0017C8  4A11               	infsnz	??_abs^0,f,c
  3403   0017CA  2A12               	incf	(??_abs+1)^0,f,c
  3404   0017CC  C011  F00F         	movff	??_abs,?_abs
  3405   0017D0  C012  F010         	movff	??_abs+1,?_abs+1
  3406   0017D4  EFF0  F00B         	goto	l2134
  3407   0017D8                     l2131:
  3408   0017D8  C00F  F00F         	movff	abs@a,?_abs
  3409   0017DC  C010  F010         	movff	abs@a+1,?_abs+1
  3410   0017E0                     l2134:
  3411   0017E0  0012               	return		;funcret
  3412   0017E2                     __end_of_abs:
  3413                           	callstack 0
  3414                           
  3415 ;; *************** function ___almod *****************
  3416 ;; Defined at:
  3417 ;;		line 7 in file "C:\Program Files\Microchip\xc8\v2.41\pic\sources\c99\common\almod.c"
  3418 ;; Parameters:    Size  Location     Type
  3419 ;;  dividend        4    4[COMRAM] long 
  3420 ;;  divisor         4    8[COMRAM] long 
  3421 ;; Auto vars:     Size  Location     Type
  3422 ;;  sign            1   13[COMRAM] unsigned char 
  3423 ;;  counter         1   12[COMRAM] unsigned char 
  3424 ;; Return value:  Size  Location     Type
  3425 ;;                  4    4[COMRAM] long 
  3426 ;; Registers used:
  3427 ;;		wreg, status,2, status,0
  3428 ;; Tracked objects:
  3429 ;;		On entry : 0/0
  3430 ;;		On exit  : 0/0
  3431 ;;		Unchanged: 0/0
  3432 ;; Data sizes:     COMRAM   BANK0   BANK1   BANK2   BANK3   BANK4   BANK5   BANK6   BANK7   BANK8   BANK9  BANK10  BANK1
      +1  BANK12  BANK13  BANK14  BANK15
  3433 ;;      Params:         8       0       0       0       0       0       0       0       0       0       0       0       
      +0       0       0       0       0
  3434 ;;      Locals:         2       0       0       0       0       0       0       0       0       0       0       0       
      +0       0       0       0       0
  3435 ;;      Temps:          0       0       0       0       0       0       0       0       0       0       0       0       
      +0       0       0       0       0
  3436 ;;      Totals:        10       0       0       0       0       0       0       0       0       0       0       0       
      +0       0       0       0       0
  3437 ;;Total ram usage:       10 bytes
  3438 ;; Hardware stack levels used: 1
  3439 ;; Hardware stack levels required when called: 3
  3440 ;; This function calls:
  3441 ;;		Nothing
  3442 ;; This function is called by:
  3443 ;;		_dtoa
  3444 ;; This function uses a non-reentrant model
  3445 ;;
  3446                           
  3447                           	psect	text12
  3448   000E86                     __ptext12:
  3449                           	callstack 0
  3450   000E86                     ___almod:
  3451                           	callstack 23
  3452   000E86  0E00               	movlw	0
  3453   000E88  6E0E               	movwf	___almod@sign^0,c
  3454   000E8A  BE08               	btfsc	(___almod@dividend+3)^0,7,c
  3455   000E8C  EF4C  F007         	goto	u4490
  3456   000E90  EF4A  F007         	goto	u4491
  3457   000E94                     u4491:
  3458   000E94  EF56  F007         	goto	l6866
  3459   000E98                     u4490:
  3460   000E98  1E08               	comf	(___almod@dividend+3)^0,f,c
  3461   000E9A  1E07               	comf	(___almod@dividend+2)^0,f,c
  3462   000E9C  1E06               	comf	(___almod@dividend+1)^0,f,c
  3463   000E9E  6C05               	negf	___almod@dividend^0,c
  3464   000EA0  0E00               	movlw	0
  3465   000EA2  2206               	addwfc	(___almod@dividend+1)^0,f,c
  3466   000EA4  2207               	addwfc	(___almod@dividend+2)^0,f,c
  3467   000EA6  2208               	addwfc	(___almod@dividend+3)^0,f,c
  3468   000EA8  0E01               	movlw	1
  3469   000EAA  6E0E               	movwf	___almod@sign^0,c
  3470   000EAC                     l6866:
  3471   000EAC  BE0C               	btfsc	(___almod@divisor+3)^0,7,c
  3472   000EAE  EF5D  F007         	goto	u4500
  3473   000EB2  EF5B  F007         	goto	u4501
  3474   000EB6                     u4501:
  3475   000EB6  EF65  F007         	goto	l6870
  3476   000EBA                     u4500:
  3477   000EBA  1E0C               	comf	(___almod@divisor+3)^0,f,c
  3478   000EBC  1E0B               	comf	(___almod@divisor+2)^0,f,c
  3479   000EBE  1E0A               	comf	(___almod@divisor+1)^0,f,c
  3480   000EC0  6C09               	negf	___almod@divisor^0,c
  3481   000EC2  0E00               	movlw	0
  3482   000EC4  220A               	addwfc	(___almod@divisor+1)^0,f,c
  3483   000EC6  220B               	addwfc	(___almod@divisor+2)^0,f,c
  3484   000EC8  220C               	addwfc	(___almod@divisor+3)^0,f,c
  3485   000ECA                     l6870:
  3486   000ECA  5009               	movf	___almod@divisor^0,w,c
  3487   000ECC  100A               	iorwf	(___almod@divisor+1)^0,w,c
  3488   000ECE  100B               	iorwf	(___almod@divisor+2)^0,w,c
  3489   000ED0  100C               	iorwf	(___almod@divisor+3)^0,w,c
  3490   000ED2  B4D8               	btfsc	status,2,c
  3491   000ED4  EF6E  F007         	goto	u4511
  3492   000ED8  EF70  F007         	goto	u4510
  3493   000EDC                     u4511:
  3494   000EDC  EFA0  F007         	goto	l6886
  3495   000EE0                     u4510:
  3496   000EE0  0E01               	movlw	1
  3497   000EE2  6E0D               	movwf	___almod@counter^0,c
  3498   000EE4  EF7A  F007         	goto	l6876
  3499   000EE8                     l6874:
  3500   000EE8  90D8               	bcf	status,0,c
  3501   000EEA  3609               	rlcf	___almod@divisor^0,f,c
  3502   000EEC  360A               	rlcf	(___almod@divisor+1)^0,f,c
  3503   000EEE  360B               	rlcf	(___almod@divisor+2)^0,f,c
  3504   000EF0  360C               	rlcf	(___almod@divisor+3)^0,f,c
  3505   000EF2  2A0D               	incf	___almod@counter^0,f,c
  3506   000EF4                     l6876:
  3507   000EF4  AE0C               	btfss	(___almod@divisor+3)^0,7,c
  3508   000EF6  EF7F  F007         	goto	u4521
  3509   000EFA  EF81  F007         	goto	u4520
  3510   000EFE                     u4521:
  3511   000EFE  EF74  F007         	goto	l6874
  3512   000F02                     u4520:
  3513   000F02                     l6878:
  3514   000F02  5009               	movf	___almod@divisor^0,w,c
  3515   000F04  5C05               	subwf	___almod@dividend^0,w,c
  3516   000F06  500A               	movf	(___almod@divisor+1)^0,w,c
  3517   000F08  5806               	subwfb	(___almod@dividend+1)^0,w,c
  3518   000F0A  500B               	movf	(___almod@divisor+2)^0,w,c
  3519   000F0C  5807               	subwfb	(___almod@dividend+2)^0,w,c
  3520   000F0E  500C               	movf	(___almod@divisor+3)^0,w,c
  3521   000F10  5808               	subwfb	(___almod@dividend+3)^0,w,c
  3522   000F12  A0D8               	btfss	status,0,c
  3523   000F14  EF8E  F007         	goto	u4531
  3524   000F18  EF90  F007         	goto	u4530
  3525   000F1C                     u4531:
  3526   000F1C  EF98  F007         	goto	l6882
  3527   000F20                     u4530:
  3528   000F20  5009               	movf	___almod@divisor^0,w,c
  3529   000F22  5E05               	subwf	___almod@dividend^0,f,c
  3530   000F24  500A               	movf	(___almod@divisor+1)^0,w,c
  3531   000F26  5A06               	subwfb	(___almod@dividend+1)^0,f,c
  3532   000F28  500B               	movf	(___almod@divisor+2)^0,w,c
  3533   000F2A  5A07               	subwfb	(___almod@dividend+2)^0,f,c
  3534   000F2C  500C               	movf	(___almod@divisor+3)^0,w,c
  3535   000F2E  5A08               	subwfb	(___almod@dividend+3)^0,f,c
  3536   000F30                     l6882:
  3537   000F30  90D8               	bcf	status,0,c
  3538   000F32  320C               	rrcf	(___almod@divisor+3)^0,f,c
  3539   000F34  320B               	rrcf	(___almod@divisor+2)^0,f,c
  3540   000F36  320A               	rrcf	(___almod@divisor+1)^0,f,c
  3541   000F38  3209               	rrcf	___almod@divisor^0,f,c
  3542   000F3A  2E0D               	decfsz	___almod@counter^0,f,c
  3543   000F3C  EF81  F007         	goto	l6878
  3544   000F40                     l6886:
  3545   000F40  500E               	movf	___almod@sign^0,w,c
  3546   000F42  B4D8               	btfsc	status,2,c
  3547   000F44  EFA6  F007         	goto	u4541
  3548   000F48  EFA8  F007         	goto	u4540
  3549   000F4C                     u4541:
  3550   000F4C  EFB0  F007         	goto	l6890
  3551   000F50                     u4540:
  3552   000F50  1E08               	comf	(___almod@dividend+3)^0,f,c
  3553   000F52  1E07               	comf	(___almod@dividend+2)^0,f,c
  3554   000F54  1E06               	comf	(___almod@dividend+1)^0,f,c
  3555   000F56  6C05               	negf	___almod@dividend^0,c
  3556   000F58  0E00               	movlw	0
  3557   000F5A  2206               	addwfc	(___almod@dividend+1)^0,f,c
  3558   000F5C  2207               	addwfc	(___almod@dividend+2)^0,f,c
  3559   000F5E  2208               	addwfc	(___almod@dividend+3)^0,f,c
  3560   000F60                     l6890:
  3561   000F60  C005  F005         	movff	___almod@dividend,?___almod
  3562   000F64  C006  F006         	movff	___almod@dividend+1,?___almod+1
  3563   000F68  C007  F007         	movff	___almod@dividend+2,?___almod+2
  3564   000F6C  C008  F008         	movff	___almod@dividend+3,?___almod+3
  3565   000F70  0012               	return		;funcret
  3566   000F72                     __end_of___almod:
  3567                           	callstack 0
  3568                           
  3569 ;; *************** function ___aldiv *****************
  3570 ;; Defined at:
  3571 ;;		line 7 in file "C:\Program Files\Microchip\xc8\v2.41\pic\sources\c99\common\aldiv.c"
  3572 ;; Parameters:    Size  Location     Type
  3573 ;;  dividend        4    4[COMRAM] long 
  3574 ;;  divisor         4    8[COMRAM] long 
  3575 ;; Auto vars:     Size  Location     Type
  3576 ;;  quotient        4   14[COMRAM] long 
  3577 ;;  sign            1   13[COMRAM] unsigned char 
  3578 ;;  counter         1   12[COMRAM] unsigned char 
  3579 ;; Return value:  Size  Location     Type
  3580 ;;                  4    4[COMRAM] long 
  3581 ;; Registers used:
  3582 ;;		wreg, status,2, status,0
  3583 ;; Tracked objects:
  3584 ;;		On entry : 0/0
  3585 ;;		On exit  : 0/0
  3586 ;;		Unchanged: 0/0
  3587 ;; Data sizes:     COMRAM   BANK0   BANK1   BANK2   BANK3   BANK4   BANK5   BANK6   BANK7   BANK8   BANK9  BANK10  BANK1
      +1  BANK12  BANK13  BANK14  BANK15
  3588 ;;      Params:         8       0       0       0       0       0       0       0       0       0       0       0       
      +0       0       0       0       0
  3589 ;;      Locals:         6       0       0       0       0       0       0       0       0       0       0       0       
      +0       0       0       0       0
  3590 ;;      Temps:          0       0       0       0       0       0       0       0       0       0       0       0       
      +0       0       0       0       0
  3591 ;;      Totals:        14       0       0       0       0       0       0       0       0       0       0       0       
      +0       0       0       0       0
  3592 ;;Total ram usage:       14 bytes
  3593 ;; Hardware stack levels used: 1
  3594 ;; Hardware stack levels required when called: 3
  3595 ;; This function calls:
  3596 ;;		Nothing
  3597 ;; This function is called by:
  3598 ;;		_dtoa
  3599 ;; This function uses a non-reentrant model
  3600 ;;
  3601                           
  3602                           	psect	text13
  3603   000B9E                     __ptext13:
  3604                           	callstack 0
  3605   000B9E                     ___aldiv:
  3606                           	callstack 23
  3607   000B9E  0E00               	movlw	0
  3608   000BA0  6E0E               	movwf	___aldiv@sign^0,c
  3609   000BA2  BE0C               	btfsc	(___aldiv@divisor+3)^0,7,c
  3610   000BA4  EFD8  F005         	goto	u4430
  3611   000BA8  EFD6  F005         	goto	u4431
  3612   000BAC                     u4431:
  3613   000BAC  EFE2  F005         	goto	l6822
  3614   000BB0                     u4430:
  3615   000BB0  1E0C               	comf	(___aldiv@divisor+3)^0,f,c
  3616   000BB2  1E0B               	comf	(___aldiv@divisor+2)^0,f,c
  3617   000BB4  1E0A               	comf	(___aldiv@divisor+1)^0,f,c
  3618   000BB6  6C09               	negf	___aldiv@divisor^0,c
  3619   000BB8  0E00               	movlw	0
  3620   000BBA  220A               	addwfc	(___aldiv@divisor+1)^0,f,c
  3621   000BBC  220B               	addwfc	(___aldiv@divisor+2)^0,f,c
  3622   000BBE  220C               	addwfc	(___aldiv@divisor+3)^0,f,c
  3623   000BC0  0E01               	movlw	1
  3624   000BC2  6E0E               	movwf	___aldiv@sign^0,c
  3625   000BC4                     l6822:
  3626   000BC4  BE08               	btfsc	(___aldiv@dividend+3)^0,7,c
  3627   000BC6  EFE9  F005         	goto	u4440
  3628   000BCA  EFE7  F005         	goto	u4441
  3629   000BCE                     u4441:
  3630   000BCE  EFF3  F005         	goto	l6828
  3631   000BD2                     u4440:
  3632   000BD2  1E08               	comf	(___aldiv@dividend+3)^0,f,c
  3633   000BD4  1E07               	comf	(___aldiv@dividend+2)^0,f,c
  3634   000BD6  1E06               	comf	(___aldiv@dividend+1)^0,f,c
  3635   000BD8  6C05               	negf	___aldiv@dividend^0,c
  3636   000BDA  0E00               	movlw	0
  3637   000BDC  2206               	addwfc	(___aldiv@dividend+1)^0,f,c
  3638   000BDE  2207               	addwfc	(___aldiv@dividend+2)^0,f,c
  3639   000BE0  2208               	addwfc	(___aldiv@dividend+3)^0,f,c
  3640   000BE2  0E01               	movlw	1
  3641   000BE4  1A0E               	xorwf	___aldiv@sign^0,f,c
  3642   000BE6                     l6828:
  3643   000BE6  0E00               	movlw	0
  3644   000BE8  6E0F               	movwf	___aldiv@quotient^0,c
  3645   000BEA  0E00               	movlw	0
  3646   000BEC  6E10               	movwf	(___aldiv@quotient+1)^0,c
  3647   000BEE  0E00               	movlw	0
  3648   000BF0  6E11               	movwf	(___aldiv@quotient+2)^0,c
  3649   000BF2  0E00               	movlw	0
  3650   000BF4  6E12               	movwf	(___aldiv@quotient+3)^0,c
  3651   000BF6  5009               	movf	___aldiv@divisor^0,w,c
  3652   000BF8  100A               	iorwf	(___aldiv@divisor+1)^0,w,c
  3653   000BFA  100B               	iorwf	(___aldiv@divisor+2)^0,w,c
  3654   000BFC  100C               	iorwf	(___aldiv@divisor+3)^0,w,c
  3655   000BFE  B4D8               	btfsc	status,2,c
  3656   000C00  EF04  F006         	goto	u4451
  3657   000C04  EF06  F006         	goto	u4450
  3658   000C08                     u4451:
  3659   000C08  EF3C  F006         	goto	l6850
  3660   000C0C                     u4450:
  3661   000C0C  0E01               	movlw	1
  3662   000C0E  6E0D               	movwf	___aldiv@counter^0,c
  3663   000C10  EF10  F006         	goto	l6836
  3664   000C14                     l6834:
  3665   000C14  90D8               	bcf	status,0,c
  3666   000C16  3609               	rlcf	___aldiv@divisor^0,f,c
  3667   000C18  360A               	rlcf	(___aldiv@divisor+1)^0,f,c
  3668   000C1A  360B               	rlcf	(___aldiv@divisor+2)^0,f,c
  3669   000C1C  360C               	rlcf	(___aldiv@divisor+3)^0,f,c
  3670   000C1E  2A0D               	incf	___aldiv@counter^0,f,c
  3671   000C20                     l6836:
  3672   000C20  AE0C               	btfss	(___aldiv@divisor+3)^0,7,c
  3673   000C22  EF15  F006         	goto	u4461
  3674   000C26  EF17  F006         	goto	u4460
  3675   000C2A                     u4461:
  3676   000C2A  EF0A  F006         	goto	l6834
  3677   000C2E                     u4460:
  3678   000C2E                     l6838:
  3679   000C2E  90D8               	bcf	status,0,c
  3680   000C30  360F               	rlcf	___aldiv@quotient^0,f,c
  3681   000C32  3610               	rlcf	(___aldiv@quotient+1)^0,f,c
  3682   000C34  3611               	rlcf	(___aldiv@quotient+2)^0,f,c
  3683   000C36  3612               	rlcf	(___aldiv@quotient+3)^0,f,c
  3684   000C38  5009               	movf	___aldiv@divisor^0,w,c
  3685   000C3A  5C05               	subwf	___aldiv@dividend^0,w,c
  3686   000C3C  500A               	movf	(___aldiv@divisor+1)^0,w,c
  3687   000C3E  5806               	subwfb	(___aldiv@dividend+1)^0,w,c
  3688   000C40  500B               	movf	(___aldiv@divisor+2)^0,w,c
  3689   000C42  5807               	subwfb	(___aldiv@dividend+2)^0,w,c
  3690   000C44  500C               	movf	(___aldiv@divisor+3)^0,w,c
  3691   000C46  5808               	subwfb	(___aldiv@dividend+3)^0,w,c
  3692   000C48  A0D8               	btfss	status,0,c
  3693   000C4A  EF29  F006         	goto	u4471
  3694   000C4E  EF2B  F006         	goto	u4470
  3695   000C52                     u4471:
  3696   000C52  EF34  F006         	goto	l6846
  3697   000C56                     u4470:
  3698   000C56  5009               	movf	___aldiv@divisor^0,w,c
  3699   000C58  5E05               	subwf	___aldiv@dividend^0,f,c
  3700   000C5A  500A               	movf	(___aldiv@divisor+1)^0,w,c
  3701   000C5C  5A06               	subwfb	(___aldiv@dividend+1)^0,f,c
  3702   000C5E  500B               	movf	(___aldiv@divisor+2)^0,w,c
  3703   000C60  5A07               	subwfb	(___aldiv@dividend+2)^0,f,c
  3704   000C62  500C               	movf	(___aldiv@divisor+3)^0,w,c
  3705   000C64  5A08               	subwfb	(___aldiv@dividend+3)^0,f,c
  3706   000C66  800F               	bsf	___aldiv@quotient^0,0,c
  3707   000C68                     l6846:
  3708   000C68  90D8               	bcf	status,0,c
  3709   000C6A  320C               	rrcf	(___aldiv@divisor+3)^0,f,c
  3710   000C6C  320B               	rrcf	(___aldiv@divisor+2)^0,f,c
  3711   000C6E  320A               	rrcf	(___aldiv@divisor+1)^0,f,c
  3712   000C70  3209               	rrcf	___aldiv@divisor^0,f,c
  3713   000C72  2E0D               	decfsz	___aldiv@counter^0,f,c
  3714   000C74  EF17  F006         	goto	l6838
  3715   000C78                     l6850:
  3716   000C78  500E               	movf	___aldiv@sign^0,w,c
  3717   000C7A  B4D8               	btfsc	status,2,c
  3718   000C7C  EF42  F006         	goto	u4481
  3719   000C80  EF44  F006         	goto	u4480
  3720   000C84                     u4481:
  3721   000C84  EF4C  F006         	goto	l6854
  3722   000C88                     u4480:
  3723   000C88  1E12               	comf	(___aldiv@quotient+3)^0,f,c
  3724   000C8A  1E11               	comf	(___aldiv@quotient+2)^0,f,c
  3725   000C8C  1E10               	comf	(___aldiv@quotient+1)^0,f,c
  3726   000C8E  6C0F               	negf	___aldiv@quotient^0,c
  3727   000C90  0E00               	movlw	0
  3728   000C92  2210               	addwfc	(___aldiv@quotient+1)^0,f,c
  3729   000C94  2211               	addwfc	(___aldiv@quotient+2)^0,f,c
  3730   000C96  2212               	addwfc	(___aldiv@quotient+3)^0,f,c
  3731   000C98                     l6854:
  3732   000C98  C00F  F005         	movff	___aldiv@quotient,?___aldiv
  3733   000C9C  C010  F006         	movff	___aldiv@quotient+1,?___aldiv+1
  3734   000CA0  C011  F007         	movff	___aldiv@quotient+2,?___aldiv+2
  3735   000CA4  C012  F008         	movff	___aldiv@quotient+3,?___aldiv+3
  3736   000CA8  0012               	return		;funcret
  3737   000CAA                     __end_of___aldiv:
  3738                           	callstack 0
  3739                           
  3740 ;; *************** function _millis *****************
  3741 ;; Defined at:
  3742 ;;		line 39 in file "millis.c"
  3743 ;; Parameters:    Size  Location     Type
  3744 ;;		None
  3745 ;; Auto vars:     Size  Location     Type
  3746 ;;  m               4    8[COMRAM] volatile unsigned long 
  3747 ;; Return value:  Size  Location     Type
  3748 ;;                  4    4[COMRAM] unsigned long 
  3749 ;; Registers used:
  3750 ;;		None
  3751 ;; Tracked objects:
  3752 ;;		On entry : 0/0
  3753 ;;		On exit  : 0/0
  3754 ;;		Unchanged: 0/0
  3755 ;; Data sizes:     COMRAM   BANK0   BANK1   BANK2   BANK3   BANK4   BANK5   BANK6   BANK7   BANK8   BANK9  BANK10  BANK1
      +1  BANK12  BANK13  BANK14  BANK15
  3756 ;;      Params:         4       0       0       0       0       0       0       0       0       0       0       0       
      +0       0       0       0       0
  3757 ;;      Locals:         4       0       0       0       0       0       0       0       0       0       0       0       
      +0       0       0       0       0
  3758 ;;      Temps:          0       0       0       0       0       0       0       0       0       0       0       0       
      +0       0       0       0       0
  3759 ;;      Totals:         8       0       0       0       0       0       0       0       0       0       0       0       
      +0       0       0       0       0
  3760 ;;Total ram usage:        8 bytes
  3761 ;; Hardware stack levels used: 1
  3762 ;; Hardware stack levels required when called: 3
  3763 ;; This function calls:
  3764 ;;		Nothing
  3765 ;; This function is called by:
  3766 ;;		_main
  3767 ;; This function uses a non-reentrant model
  3768 ;;
  3769                           
  3770                           	psect	text14
  3771   00193E                     __ptext14:
  3772                           	callstack 0
  3773   00193E                     _millis:
  3774                           	callstack 27
  3775   00193E                     
  3776                           ;millis.c: 41:     volatile uint32_t m;;millis.c: 45:     (INTCONbits.GIE = 0);
  3777   00193E  9EF2               	bcf	242,7,c	;volatile
  3778                           
  3779                           ;millis.c: 46:     m = _millis;
  3780   001940  C08E  F009         	movff	__millis,millis@m	;volatile
  3781   001944  C08F  F00A         	movff	__millis+1,millis@m+1	;volatile
  3782   001948  C090  F00B         	movff	__millis+2,millis@m+2	;volatile
  3783   00194C  C091  F00C         	movff	__millis+3,millis@m+3	;volatile
  3784                           
  3785                           ;millis.c: 47:     (INTCONbits.GIE = 1);
  3786   001950  8EF2               	bsf	242,7,c	;volatile
  3787                           
  3788                           ;millis.c: 49:     return m;
  3789   001952  C009  F005         	movff	millis@m,?_millis	;volatile
  3790   001956  C00A  F006         	movff	millis@m+1,?_millis+1	;volatile
  3791   00195A  C00B  F007         	movff	millis@m+2,?_millis+2	;volatile
  3792   00195E  C00C  F008         	movff	millis@m+3,?_millis+3	;volatile
  3793   001962  0012               	return		;funcret
  3794   001964                     __end_of_millis:
  3795                           	callstack 0
  3796                           
  3797 ;; *************** function _SYSTEM_Initialize *****************
  3798 ;; Defined at:
  3799 ;;		line 50 in file "mcc_generated_files/mcc.c"
  3800 ;; Parameters:    Size  Location     Type
  3801 ;;		None
  3802 ;; Auto vars:     Size  Location     Type
  3803 ;;		None
  3804 ;; Return value:  Size  Location     Type
  3805 ;;                  1    wreg      void 
  3806 ;; Registers used:
  3807 ;;		wreg, status,2, status,0, cstack
  3808 ;; Tracked objects:
  3809 ;;		On entry : 0/0
  3810 ;;		On exit  : 0/0
  3811 ;;		Unchanged: 0/0
  3812 ;; Data sizes:     COMRAM   BANK0   BANK1   BANK2   BANK3   BANK4   BANK5   BANK6   BANK7   BANK8   BANK9  BANK10  BANK1
      +1  BANK12  BANK13  BANK14  BANK15
  3813 ;;      Params:         0       0       0       0       0       0       0       0       0       0       0       0       
      +0       0       0       0       0
  3814 ;;      Locals:         0       0       0       0       0       0       0       0       0       0       0       0       
      +0       0       0       0       0
  3815 ;;      Temps:          0       0       0       0       0       0       0       0       0       0       0       0       
      +0       0       0       0       0
  3816 ;;      Totals:         0       0       0       0       0       0       0       0       0       0       0       0       
      +0       0       0       0       0
  3817 ;;Total ram usage:        0 bytes
  3818 ;; Hardware stack levels used: 1
  3819 ;; Hardware stack levels required when called: 5
  3820 ;; This function calls:
  3821 ;;		_EUSART1_Initialize
  3822 ;;		_I2C1_Initialize
  3823 ;;		_INTERRUPT_Initialize
  3824 ;;		_OSCILLATOR_Initialize
  3825 ;;		_PIN_MANAGER_Initialize
  3826 ;;		_SPI2_Initialize
  3827 ;;		_TMR1_Initialize
  3828 ;; This function is called by:
  3829 ;;		_main
  3830 ;; This function uses a non-reentrant model
  3831 ;;
  3832                           
  3833                           	psect	text15
  3834   001964                     __ptext15:
  3835                           	callstack 0
  3836   001964                     _SYSTEM_Initialize:
  3837                           	callstack 25
  3838   001964                     
  3839                           ;mcc_generated_files/mcc.c: 53:     INTERRUPT_Initialize();
  3840   001964  EC14  F00D         	call	_INTERRUPT_Initialize	;wreg free
  3841   001968                     
  3842                           ;mcc_generated_files/mcc.c: 54:     I2C1_Initialize();
  3843   001968  ECCC  F00C         	call	_I2C1_Initialize	;wreg free
  3844   00196C                     
  3845                           ;mcc_generated_files/mcc.c: 55:     SPI2_Initialize();
  3846   00196C  ECD6  F00C         	call	_SPI2_Initialize	;wreg free
  3847   001970                     
  3848                           ;mcc_generated_files/mcc.c: 56:     PIN_MANAGER_Initialize();
  3849   001970  EC4D  F00C         	call	_PIN_MANAGER_Initialize	;wreg free
  3850   001974                     
  3851                           ;mcc_generated_files/mcc.c: 57:     OSCILLATOR_Initialize();
  3852   001974  ECE7  F00C         	call	_OSCILLATOR_Initialize	;wreg free
  3853   001978                     
  3854                           ;mcc_generated_files/mcc.c: 58:     TMR1_Initialize();
  3855   001978  EC63  F00C         	call	_TMR1_Initialize	;wreg free
  3856   00197C                     
  3857                           ;mcc_generated_files/mcc.c: 59:     EUSART1_Initialize();
  3858   00197C  ECF1  F00B         	call	_EUSART1_Initialize	;wreg free
  3859   001980  0012               	return		;funcret
  3860   001982                     __end_of_SYSTEM_Initialize:
  3861                           	callstack 0
  3862                           
  3863 ;; *************** function _TMR1_Initialize *****************
  3864 ;; Defined at:
  3865 ;;		line 64 in file "mcc_generated_files/tmr1.c"
  3866 ;; Parameters:    Size  Location     Type
  3867 ;;		None
  3868 ;; Auto vars:     Size  Location     Type
  3869 ;;		None
  3870 ;; Return value:  Size  Location     Type
  3871 ;;                  1    wreg      void 
  3872 ;; Registers used:
  3873 ;;		wreg, status,2, status,0, cstack
  3874 ;; Tracked objects:
  3875 ;;		On entry : 0/0
  3876 ;;		On exit  : 0/0
  3877 ;;		Unchanged: 0/0
  3878 ;; Data sizes:     COMRAM   BANK0   BANK1   BANK2   BANK3   BANK4   BANK5   BANK6   BANK7   BANK8   BANK9  BANK10  BANK1
      +1  BANK12  BANK13  BANK14  BANK15
  3879 ;;      Params:         0       0       0       0       0       0       0       0       0       0       0       0       
      +0       0       0       0       0
  3880 ;;      Locals:         0       0       0       0       0       0       0       0       0       0       0       0       
      +0       0       0       0       0
  3881 ;;      Temps:          0       0       0       0       0       0       0       0       0       0       0       0       
      +0       0       0       0       0
  3882 ;;      Totals:         0       0       0       0       0       0       0       0       0       0       0       0       
      +0       0       0       0       0
  3883 ;;Total ram usage:        0 bytes
  3884 ;; Hardware stack levels used: 1
  3885 ;; Hardware stack levels required when called: 4
  3886 ;; This function calls:
  3887 ;;		_TMR1_SetInterruptHandler
  3888 ;; This function is called by:
  3889 ;;		_SYSTEM_Initialize
  3890 ;; This function uses a non-reentrant model
  3891 ;;
  3892                           
  3893                           	psect	text16
  3894   0018C6                     __ptext16:
  3895                           	callstack 0
  3896   0018C6                     _TMR1_Initialize:
  3897                           	callstack 25
  3898   0018C6                     
  3899                           ;mcc_generated_files/tmr1.c: 69:     T1GCON = 0x00;
  3900   0018C6  0E00               	movlw	0
  3901   0018C8  6ECC               	movwf	204,c	;volatile
  3902                           
  3903                           ;mcc_generated_files/tmr1.c: 72:     TMR1H = 0xFC;
  3904   0018CA  0EFC               	movlw	252
  3905   0018CC  6ECF               	movwf	207,c	;volatile
  3906                           
  3907                           ;mcc_generated_files/tmr1.c: 75:     TMR1L = 0x18;
  3908   0018CE  0E18               	movlw	24
  3909   0018D0  6ECE               	movwf	206,c	;volatile
  3910   0018D2                     
  3911                           ;mcc_generated_files/tmr1.c: 78:     timer1ReloadVal=TMR1;
  3912   0018D2  CFCE F059          	movff	4046,_timer1ReloadVal	;volatile
  3913   0018D6  CFCF F05A          	movff	4047,_timer1ReloadVal+1	;volatile
  3914   0018DA                     
  3915                           ;mcc_generated_files/tmr1.c: 81:     PIR1bits.TMR1IF = 0;
  3916   0018DA  909E               	bcf	158,0,c	;volatile
  3917   0018DC                     
  3918                           ;mcc_generated_files/tmr1.c: 84:     PIE1bits.TMR1IE = 1;
  3919   0018DC  809D               	bsf	157,0,c	;volatile
  3920   0018DE                     
  3921                           ;mcc_generated_files/tmr1.c: 87:     TMR1_SetInterruptHandler(TMR1_DefaultInterruptHandl
      +                          er);
  3922   0018DE  0E30               	movlw	low _TMR1_DefaultInterruptHandler
  3923   0018E0  6E05               	movwf	TMR1_SetInterruptHandler@InterruptHandler^0,c
  3924   0018E2  0E1A               	movlw	high _TMR1_DefaultInterruptHandler
  3925   0018E4  6E06               	movwf	(TMR1_SetInterruptHandler@InterruptHandler+1)^0,c
  3926   0018E6  ECF9  F00C         	call	_TMR1_SetInterruptHandler	;wreg free
  3927   0018EA                     
  3928                           ;mcc_generated_files/tmr1.c: 90:     T1CON = 0x27;
  3929   0018EA  0E27               	movlw	39
  3930   0018EC  6ECD               	movwf	205,c	;volatile
  3931   0018EE  0012               	return		;funcret
  3932   0018F0                     __end_of_TMR1_Initialize:
  3933                           	callstack 0
  3934                           
  3935 ;; *************** function _TMR1_SetInterruptHandler *****************
  3936 ;; Defined at:
  3937 ;;		line 172 in file "mcc_generated_files/tmr1.c"
  3938 ;; Parameters:    Size  Location     Type
  3939 ;;  InterruptHan    2    4[COMRAM] PTR FTN()void 
  3940 ;;		 -> increment_interrupt(1), TMR1_DefaultInterruptHandler(1), 
  3941 ;; Auto vars:     Size  Location     Type
  3942 ;;		None
  3943 ;; Return value:  Size  Location     Type
  3944 ;;                  1    wreg      void 
  3945 ;; Registers used:
  3946 ;;		wreg, status,2, status,0
  3947 ;; Tracked objects:
  3948 ;;		On entry : 0/0
  3949 ;;		On exit  : 0/0
  3950 ;;		Unchanged: 0/0
  3951 ;; Data sizes:     COMRAM   BANK0   BANK1   BANK2   BANK3   BANK4   BANK5   BANK6   BANK7   BANK8   BANK9  BANK10  BANK1
      +1  BANK12  BANK13  BANK14  BANK15
  3952 ;;      Params:         2       0       0       0       0       0       0       0       0       0       0       0       
      +0       0       0       0       0
  3953 ;;      Locals:         0       0       0       0       0       0       0       0       0       0       0       0       
      +0       0       0       0       0
  3954 ;;      Temps:          0       0       0       0       0       0       0       0       0       0       0       0       
      +0       0       0       0       0
  3955 ;;      Totals:         2       0       0       0       0       0       0       0       0       0       0       0       
      +0       0       0       0       0
  3956 ;;Total ram usage:        2 bytes
  3957 ;; Hardware stack levels used: 1
  3958 ;; Hardware stack levels required when called: 3
  3959 ;; This function calls:
  3960 ;;		Nothing
  3961 ;; This function is called by:
  3962 ;;		_TMR1_Initialize
  3963 ;;		_main
  3964 ;; This function uses a non-reentrant model
  3965 ;;
  3966                           
  3967                           	psect	text17
  3968   0019F2                     __ptext17:
  3969                           	callstack 0
  3970   0019F2                     _TMR1_SetInterruptHandler:
  3971                           	callstack 27
  3972   0019F2                     
  3973                           ;mcc_generated_files/tmr1.c: 173:     TMR1_InterruptHandler = InterruptHandler;
  3974   0019F2  C005  F0FB         	movff	TMR1_SetInterruptHandler@InterruptHandler,_TMR1_InterruptHandler
  3975   0019F6  C006  F0FC         	movff	TMR1_SetInterruptHandler@InterruptHandler+1,_TMR1_InterruptHandler+1
  3976   0019FA  0012               	return		;funcret
  3977   0019FC                     __end_of_TMR1_SetInterruptHandler:
  3978                           	callstack 0
  3979                           
  3980 ;; *************** function _SPI2_Initialize *****************
  3981 ;; Defined at:
  3982 ;;		line 62 in file "mcc_generated_files/spi2.c"
  3983 ;; Parameters:    Size  Location     Type
  3984 ;;		None
  3985 ;; Auto vars:     Size  Location     Type
  3986 ;;		None
  3987 ;; Return value:  Size  Location     Type
  3988 ;;                  1    wreg      void 
  3989 ;; Registers used:
  3990 ;;		wreg, status,2
  3991 ;; Tracked objects:
  3992 ;;		On entry : 0/0
  3993 ;;		On exit  : 0/0
  3994 ;;		Unchanged: 0/0
  3995 ;; Data sizes:     COMRAM   BANK0   BANK1   BANK2   BANK3   BANK4   BANK5   BANK6   BANK7   BANK8   BANK9  BANK10  BANK1
      +1  BANK12  BANK13  BANK14  BANK15
  3996 ;;      Params:         0       0       0       0       0       0       0       0       0       0       0       0       
      +0       0       0       0       0
  3997 ;;      Locals:         0       0       0       0       0       0       0       0       0       0       0       0       
      +0       0       0       0       0
  3998 ;;      Temps:          0       0       0       0       0       0       0       0       0       0       0       0       
      +0       0       0       0       0
  3999 ;;      Totals:         0       0       0       0       0       0       0       0       0       0       0       0       
      +0       0       0       0       0
  4000 ;;Total ram usage:        0 bytes
  4001 ;; Hardware stack levels used: 1
  4002 ;; Hardware stack levels required when called: 3
  4003 ;; This function calls:
  4004 ;;		Nothing
  4005 ;; This function is called by:
  4006 ;;		_SYSTEM_Initialize
  4007 ;; This function uses a non-reentrant model
  4008 ;;
  4009                           
  4010                           	psect	text18
  4011   0019AC                     __ptext18:
  4012                           	callstack 0
  4013   0019AC                     _SPI2_Initialize:
  4014                           	callstack 26
  4015   0019AC                     
  4016                           ;mcc_generated_files/spi2.c: 65:     SSP2STAT = 0x40;
  4017   0019AC  0E40               	movlw	64
  4018   0019AE  6E6D               	movwf	109,c	;volatile
  4019                           
  4020                           ;mcc_generated_files/spi2.c: 66:     SSP2CON1 = 0x00;
  4021   0019B0  0E00               	movlw	0
  4022   0019B2  6E6C               	movwf	108,c	;volatile
  4023                           
  4024                           ;mcc_generated_files/spi2.c: 67:     SSP2ADD = 0x01;
  4025   0019B4  0E01               	movlw	1
  4026   0019B6  6E6E               	movwf	110,c	;volatile
  4027   0019B8                     
  4028                           ;mcc_generated_files/spi2.c: 68:     TRISBbits.TRISB1 = 0;
  4029   0019B8  9293               	bcf	147,1,c	;volatile
  4030   0019BA                     
  4031                           ;mcc_generated_files/spi2.c: 69:     SSP2CON1bits.SSPEN = 0;
  4032   0019BA  9A6C               	bcf	108,5,c	;volatile
  4033   0019BC  0012               	return		;funcret
  4034   0019BE                     __end_of_SPI2_Initialize:
  4035                           	callstack 0
  4036                           
  4037 ;; *************** function _PIN_MANAGER_Initialize *****************
  4038 ;; Defined at:
  4039 ;;		line 55 in file "mcc_generated_files/pin_manager.c"
  4040 ;; Parameters:    Size  Location     Type
  4041 ;;		None
  4042 ;; Auto vars:     Size  Location     Type
  4043 ;;		None
  4044 ;; Return value:  Size  Location     Type
  4045 ;;                  1    wreg      void 
  4046 ;; Registers used:
  4047 ;;		wreg, status,2
  4048 ;; Tracked objects:
  4049 ;;		On entry : 0/0
  4050 ;;		On exit  : 0/0
  4051 ;;		Unchanged: 0/0
  4052 ;; Data sizes:     COMRAM   BANK0   BANK1   BANK2   BANK3   BANK4   BANK5   BANK6   BANK7   BANK8   BANK9  BANK10  BANK1
      +1  BANK12  BANK13  BANK14  BANK15
  4053 ;;      Params:         0       0       0       0       0       0       0       0       0       0       0       0       
      +0       0       0       0       0
  4054 ;;      Locals:         0       0       0       0       0       0       0       0       0       0       0       0       
      +0       0       0       0       0
  4055 ;;      Temps:          0       0       0       0       0       0       0       0       0       0       0       0       
      +0       0       0       0       0
  4056 ;;      Totals:         0       0       0       0       0       0       0       0       0       0       0       0       
      +0       0       0       0       0
  4057 ;;Total ram usage:        0 bytes
  4058 ;; Hardware stack levels used: 1
  4059 ;; Hardware stack levels required when called: 3
  4060 ;; This function calls:
  4061 ;;		Nothing
  4062 ;; This function is called by:
  4063 ;;		_SYSTEM_Initialize
  4064 ;; This function uses a non-reentrant model
  4065 ;;
  4066                           
  4067                           	psect	text19
  4068   00189A                     __ptext19:
  4069                           	callstack 0
  4070   00189A                     _PIN_MANAGER_Initialize:
  4071                           	callstack 26
  4072   00189A                     
  4073                           ;mcc_generated_files/pin_manager.c: 60:     LATA = 0x00;
  4074   00189A  0E00               	movlw	0
  4075   00189C  6E89               	movwf	137,c	;volatile
  4076                           
  4077                           ;mcc_generated_files/pin_manager.c: 61:     LATB = 0x20;
  4078   00189E  0E20               	movlw	32
  4079   0018A0  6E8A               	movwf	138,c	;volatile
  4080                           
  4081                           ;mcc_generated_files/pin_manager.c: 62:     LATC = 0x01;
  4082   0018A2  0E01               	movlw	1
  4083   0018A4  6E8B               	movwf	139,c	;volatile
  4084   0018A6                     
  4085                           ;mcc_generated_files/pin_manager.c: 67:     TRISA = 0xFF;
  4086   0018A6  6892               	setf	146,c	;volatile
  4087                           
  4088                           ;mcc_generated_files/pin_manager.c: 68:     TRISB = 0xC5;
  4089   0018A8  0EC5               	movlw	197
  4090   0018AA  6E93               	movwf	147,c	;volatile
  4091                           
  4092                           ;mcc_generated_files/pin_manager.c: 69:     TRISC = 0xBF;
  4093   0018AC  0EBF               	movlw	191
  4094   0018AE  6E94               	movwf	148,c	;volatile
  4095                           
  4096                           ;mcc_generated_files/pin_manager.c: 74:     ANSELC = 0x00;
  4097   0018B0  0E00               	movlw	0
  4098   0018B2  010F               	movlb	15	; () banked
  4099   0018B4  6F3A               	movwf	58,b	;volatile
  4100                           
  4101                           ;mcc_generated_files/pin_manager.c: 75:     ANSELB = 0x11;
  4102   0018B6  0E11               	movlw	17
  4103   0018B8  6F39               	movwf	57,b	;volatile
  4104                           
  4105                           ;mcc_generated_files/pin_manager.c: 76:     ANSELA = 0x2F;
  4106   0018BA  0E2F               	movlw	47
  4107   0018BC  6F38               	movwf	56,b	;volatile
  4108                           
  4109                           ;mcc_generated_files/pin_manager.c: 81:     WPUB = 0x00;
  4110   0018BE  0E00               	movlw	0
  4111   0018C0  6E61               	movwf	97,c	;volatile
  4112   0018C2                     
  4113                           ; BSR set to: 15
  4114                           ;mcc_generated_files/pin_manager.c: 82:     INTCON2bits.nRBPU = 1;
  4115   0018C2  8EF1               	bsf	241,7,c	;volatile
  4116   0018C4                     
  4117                           ; BSR set to: 15
  4118   0018C4  0012               	return		;funcret
  4119   0018C6                     __end_of_PIN_MANAGER_Initialize:
  4120                           	callstack 0
  4121                           
  4122 ;; *************** function _OSCILLATOR_Initialize *****************
  4123 ;; Defined at:
  4124 ;;		line 62 in file "mcc_generated_files/mcc.c"
  4125 ;; Parameters:    Size  Location     Type
  4126 ;;		None
  4127 ;; Auto vars:     Size  Location     Type
  4128 ;;		None
  4129 ;; Return value:  Size  Location     Type
  4130 ;;                  1    wreg      void 
  4131 ;; Registers used:
  4132 ;;		wreg, status,2
  4133 ;; Tracked objects:
  4134 ;;		On entry : 0/0
  4135 ;;		On exit  : 0/0
  4136 ;;		Unchanged: 0/0
  4137 ;; Data sizes:     COMRAM   BANK0   BANK1   BANK2   BANK3   BANK4   BANK5   BANK6   BANK7   BANK8   BANK9  BANK10  BANK1
      +1  BANK12  BANK13  BANK14  BANK15
  4138 ;;      Params:         0       0       0       0       0       0       0       0       0       0       0       0       
      +0       0       0       0       0
  4139 ;;      Locals:         0       0       0       0       0       0       0       0       0       0       0       0       
      +0       0       0       0       0
  4140 ;;      Temps:          0       0       0       0       0       0       0       0       0       0       0       0       
      +0       0       0       0       0
  4141 ;;      Totals:         0       0       0       0       0       0       0       0       0       0       0       0       
      +0       0       0       0       0
  4142 ;;Total ram usage:        0 bytes
  4143 ;; Hardware stack levels used: 1
  4144 ;; Hardware stack levels required when called: 3
  4145 ;; This function calls:
  4146 ;;		Nothing
  4147 ;; This function is called by:
  4148 ;;		_SYSTEM_Initialize
  4149 ;; This function uses a non-reentrant model
  4150 ;;
  4151                           
  4152                           	psect	text20
  4153   0019CE                     __ptext20:
  4154                           	callstack 0
  4155   0019CE                     _OSCILLATOR_Initialize:
  4156                           	callstack 26
  4157   0019CE                     
  4158                           ;mcc_generated_files/mcc.c: 65:     OSCCON = 0x72;
  4159   0019CE  0E72               	movlw	114
  4160   0019D0  6ED3               	movwf	211,c	;volatile
  4161                           
  4162                           ;mcc_generated_files/mcc.c: 67:     OSCCON2 = 0x04;
  4163   0019D2  0E04               	movlw	4
  4164   0019D4  6ED2               	movwf	210,c	;volatile
  4165                           
  4166                           ;mcc_generated_files/mcc.c: 69:     OSCTUNE = 0x00;
  4167   0019D6  0E00               	movlw	0
  4168   0019D8  6E9B               	movwf	155,c	;volatile
  4169   0019DA  0012               	return		;funcret
  4170   0019DC                     __end_of_OSCILLATOR_Initialize:
  4171                           	callstack 0
  4172                           
  4173 ;; *************** function _INTERRUPT_Initialize *****************
  4174 ;; Defined at:
  4175 ;;		line 52 in file "mcc_generated_files/interrupt_manager.c"
  4176 ;; Parameters:    Size  Location     Type
  4177 ;;		None
  4178 ;; Auto vars:     Size  Location     Type
  4179 ;;		None
  4180 ;; Return value:  Size  Location     Type
  4181 ;;                  1    wreg      void 
  4182 ;; Registers used:
  4183 ;;		None
  4184 ;; Tracked objects:
  4185 ;;		On entry : 0/0
  4186 ;;		On exit  : 0/0
  4187 ;;		Unchanged: 0/0
  4188 ;; Data sizes:     COMRAM   BANK0   BANK1   BANK2   BANK3   BANK4   BANK5   BANK6   BANK7   BANK8   BANK9  BANK10  BANK1
      +1  BANK12  BANK13  BANK14  BANK15
  4189 ;;      Params:         0       0       0       0       0       0       0       0       0       0       0       0       
      +0       0       0       0       0
  4190 ;;      Locals:         0       0       0       0       0       0       0       0       0       0       0       0       
      +0       0       0       0       0
  4191 ;;      Temps:          0       0       0       0       0       0       0       0       0       0       0       0       
      +0       0       0       0       0
  4192 ;;      Totals:         0       0       0       0       0       0       0       0       0       0       0       0       
      +0       0       0       0       0
  4193 ;;Total ram usage:        0 bytes
  4194 ;; Hardware stack levels used: 1
  4195 ;; Hardware stack levels required when called: 3
  4196 ;; This function calls:
  4197 ;;		Nothing
  4198 ;; This function is called by:
  4199 ;;		_SYSTEM_Initialize
  4200 ;; This function uses a non-reentrant model
  4201 ;;
  4202                           
  4203                           	psect	text21
  4204   001A28                     __ptext21:
  4205                           	callstack 0
  4206   001A28                     _INTERRUPT_Initialize:
  4207                           	callstack 26
  4208   001A28                     
  4209                           ;mcc_generated_files/interrupt_manager.c: 55:     RCONbits.IPEN = 0;
  4210   001A28  9ED0               	bcf	208,7,c	;volatile
  4211   001A2A  0012               	return		;funcret
  4212   001A2C                     __end_of_INTERRUPT_Initialize:
  4213                           	callstack 0
  4214                           
  4215 ;; *************** function _I2C1_Initialize *****************
  4216 ;; Defined at:
  4217 ;;		line 167 in file "mcc_generated_files/i2c1_master.c"
  4218 ;; Parameters:    Size  Location     Type
  4219 ;;		None
  4220 ;; Auto vars:     Size  Location     Type
  4221 ;;		None
  4222 ;; Return value:  Size  Location     Type
  4223 ;;                  1    wreg      void 
  4224 ;; Registers used:
  4225 ;;		wreg, status,2
  4226 ;; Tracked objects:
  4227 ;;		On entry : 0/0
  4228 ;;		On exit  : 0/0
  4229 ;;		Unchanged: 0/0
  4230 ;; Data sizes:     COMRAM   BANK0   BANK1   BANK2   BANK3   BANK4   BANK5   BANK6   BANK7   BANK8   BANK9  BANK10  BANK1
      +1  BANK12  BANK13  BANK14  BANK15
  4231 ;;      Params:         0       0       0       0       0       0       0       0       0       0       0       0       
      +0       0       0       0       0
  4232 ;;      Locals:         0       0       0       0       0       0       0       0       0       0       0       0       
      +0       0       0       0       0
  4233 ;;      Temps:          0       0       0       0       0       0       0       0       0       0       0       0       
      +0       0       0       0       0
  4234 ;;      Totals:         0       0       0       0       0       0       0       0       0       0       0       0       
      +0       0       0       0       0
  4235 ;;Total ram usage:        0 bytes
  4236 ;; Hardware stack levels used: 1
  4237 ;; Hardware stack levels required when called: 3
  4238 ;; This function calls:
  4239 ;;		Nothing
  4240 ;; This function is called by:
  4241 ;;		_SYSTEM_Initialize
  4242 ;; This function uses a non-reentrant model
  4243 ;;
  4244                           
  4245                           	psect	text22
  4246   001998                     __ptext22:
  4247                           	callstack 0
  4248   001998                     _I2C1_Initialize:
  4249                           	callstack 26
  4250   001998                     
  4251                           ;mcc_generated_files/i2c1_master.c: 169:     SSP1STAT = 0x00;
  4252   001998  0E00               	movlw	0
  4253   00199A  6EC7               	movwf	199,c	;volatile
  4254                           
  4255                           ;mcc_generated_files/i2c1_master.c: 170:     SSP1CON1 = 0x08;
  4256   00199C  0E08               	movlw	8
  4257   00199E  6EC6               	movwf	198,c	;volatile
  4258                           
  4259                           ;mcc_generated_files/i2c1_master.c: 171:     SSP1CON2 = 0x00;
  4260   0019A0  0E00               	movlw	0
  4261   0019A2  6EC5               	movwf	197,c	;volatile
  4262                           
  4263                           ;mcc_generated_files/i2c1_master.c: 172:     SSP1ADD = 0x09;
  4264   0019A4  0E09               	movlw	9
  4265   0019A6  6EC8               	movwf	200,c	;volatile
  4266   0019A8                     
  4267                           ;mcc_generated_files/i2c1_master.c: 173:     SSP1CON1bits.SSPEN = 0;
  4268   0019A8  9AC6               	bcf	198,5,c	;volatile
  4269   0019AA  0012               	return		;funcret
  4270   0019AC                     __end_of_I2C1_Initialize:
  4271                           	callstack 0
  4272                           
  4273 ;; *************** function _EUSART1_Initialize *****************
  4274 ;; Defined at:
  4275 ;;		line 66 in file "mcc_generated_files/eusart1.c"
  4276 ;; Parameters:    Size  Location     Type
  4277 ;;		None
  4278 ;; Auto vars:     Size  Location     Type
  4279 ;;		None
  4280 ;; Return value:  Size  Location     Type
  4281 ;;                  1    wreg      void 
  4282 ;; Registers used:
  4283 ;;		wreg, status,2, status,0, cstack
  4284 ;; Tracked objects:
  4285 ;;		On entry : 0/0
  4286 ;;		On exit  : 0/0
  4287 ;;		Unchanged: 0/0
  4288 ;; Data sizes:     COMRAM   BANK0   BANK1   BANK2   BANK3   BANK4   BANK5   BANK6   BANK7   BANK8   BANK9  BANK10  BANK1
      +1  BANK12  BANK13  BANK14  BANK15
  4289 ;;      Params:         0       0       0       0       0       0       0       0       0       0       0       0       
      +0       0       0       0       0
  4290 ;;      Locals:         0       0       0       0       0       0       0       0       0       0       0       0       
      +0       0       0       0       0
  4291 ;;      Temps:          0       0       0       0       0       0       0       0       0       0       0       0       
      +0       0       0       0       0
  4292 ;;      Totals:         0       0       0       0       0       0       0       0       0       0       0       0       
      +0       0       0       0       0
  4293 ;;Total ram usage:        0 bytes
  4294 ;; Hardware stack levels used: 1
  4295 ;; Hardware stack levels required when called: 4
  4296 ;; This function calls:
  4297 ;;		_EUSART1_SetErrorHandler
  4298 ;;		_EUSART1_SetFramingErrorHandler
  4299 ;;		_EUSART1_SetOverrunErrorHandler
  4300 ;; This function is called by:
  4301 ;;		_SYSTEM_Initialize
  4302 ;; This function uses a non-reentrant model
  4303 ;;
  4304                           
  4305                           	psect	text23
  4306   0017E2                     __ptext23:
  4307                           	callstack 0
  4308   0017E2                     _EUSART1_Initialize:
  4309                           	callstack 25
  4310   0017E2                     
  4311                           ;mcc_generated_files/eusart1.c: 71:     BAUDCON1 = 0x08;
  4312   0017E2  0E08               	movlw	8
  4313   0017E4  6EB8               	movwf	184,c	;volatile
  4314                           
  4315                           ;mcc_generated_files/eusart1.c: 74:     RCSTA1 = 0x90;
  4316   0017E6  0E90               	movlw	144
  4317   0017E8  6EAB               	movwf	171,c	;volatile
  4318                           
  4319                           ;mcc_generated_files/eusart1.c: 77:     TXSTA1 = 0x24;
  4320   0017EA  0E24               	movlw	36
  4321   0017EC  6EAC               	movwf	172,c	;volatile
  4322                           
  4323                           ;mcc_generated_files/eusart1.c: 80:     SPBRG1 = 0x22;
  4324   0017EE  0E22               	movlw	34
  4325   0017F0  6EAF               	movwf	175,c	;volatile
  4326                           
  4327                           ;mcc_generated_files/eusart1.c: 83:     SPBRGH1 = 0x00;
  4328   0017F2  0E00               	movlw	0
  4329   0017F4  6EB0               	movwf	176,c	;volatile
  4330   0017F6                     
  4331                           ;mcc_generated_files/eusart1.c: 86:     EUSART1_SetFramingErrorHandler(EUSART1_DefaultFr
      +                          amingErrorHandler);
  4332   0017F6  0E00               	movlw	0
  4333   0017F8  6E05               	movwf	EUSART1_SetFramingErrorHandler@interruptHandler^0,c
  4334   0017FA  0E00               	movlw	0
  4335   0017FC  6E06               	movwf	(EUSART1_SetFramingErrorHandler@interruptHandler+1)^0,c
  4336   0017FE  EC03  F00D         	call	_EUSART1_SetFramingErrorHandler	;wreg free
  4337   001802                     
  4338                           ;mcc_generated_files/eusart1.c: 87:     EUSART1_SetOverrunErrorHandler(EUSART1_DefaultOv
      +                          errunErrorHandler);
  4339   001802  0E00               	movlw	0
  4340   001804  6E05               	movwf	EUSART1_SetOverrunErrorHandler@interruptHandler^0,c
  4341   001806  0E00               	movlw	0
  4342   001808  6E06               	movwf	(EUSART1_SetOverrunErrorHandler@interruptHandler+1)^0,c
  4343   00180A  ECFE  F00C         	call	_EUSART1_SetOverrunErrorHandler	;wreg free
  4344   00180E                     
  4345                           ;mcc_generated_files/eusart1.c: 88:     EUSART1_SetErrorHandler(EUSART1_DefaultErrorHand
      +                          ler);
  4346   00180E  0E00               	movlw	0
  4347   001810  6E05               	movwf	EUSART1_SetErrorHandler@interruptHandler^0,c
  4348   001812  0E00               	movlw	0
  4349   001814  6E06               	movwf	(EUSART1_SetErrorHandler@interruptHandler+1)^0,c
  4350   001816  EC08  F00D         	call	_EUSART1_SetErrorHandler	;wreg free
  4351   00181A                     
  4352                           ;mcc_generated_files/eusart1.c: 90:     eusart1RxLastError.status = 0;
  4353   00181A  0E00               	movlw	0
  4354   00181C  0100               	movlb	0	; () banked
  4355   00181E  6FAB               	movwf	_eusart1RxLastError& (0+255),b	;volatile
  4356   001820                     
  4357                           ; BSR set to: 0
  4358   001820  0012               	return		;funcret
  4359   001822                     __end_of_EUSART1_Initialize:
  4360                           	callstack 0
  4361                           
  4362 ;; *************** function _EUSART1_SetOverrunErrorHandler *****************
  4363 ;; Defined at:
  4364 ;;		line 170 in file "mcc_generated_files/eusart1.c"
  4365 ;; Parameters:    Size  Location     Type
  4366 ;;  interruptHan    2    4[COMRAM] PTR FTN()void 
  4367 ;;		 -> EUSART1_DefaultOverrunErrorHandler(1), 
  4368 ;; Auto vars:     Size  Location     Type
  4369 ;;		None
  4370 ;; Return value:  Size  Location     Type
  4371 ;;                  1    wreg      void 
  4372 ;; Registers used:
  4373 ;;		wreg, status,2, status,0
  4374 ;; Tracked objects:
  4375 ;;		On entry : 0/0
  4376 ;;		On exit  : 0/0
  4377 ;;		Unchanged: 0/0
  4378 ;; Data sizes:     COMRAM   BANK0   BANK1   BANK2   BANK3   BANK4   BANK5   BANK6   BANK7   BANK8   BANK9  BANK10  BANK1
      +1  BANK12  BANK13  BANK14  BANK15
  4379 ;;      Params:         2       0       0       0       0       0       0       0       0       0       0       0       
      +0       0       0       0       0
  4380 ;;      Locals:         0       0       0       0       0       0       0       0       0       0       0       0       
      +0       0       0       0       0
  4381 ;;      Temps:          0       0       0       0       0       0       0       0       0       0       0       0       
      +0       0       0       0       0
  4382 ;;      Totals:         2       0       0       0       0       0       0       0       0       0       0       0       
      +0       0       0       0       0
  4383 ;;Total ram usage:        2 bytes
  4384 ;; Hardware stack levels used: 1
  4385 ;; Hardware stack levels required when called: 3
  4386 ;; This function calls:
  4387 ;;		Nothing
  4388 ;; This function is called by:
  4389 ;;		_EUSART1_Initialize
  4390 ;; This function uses a non-reentrant model
  4391 ;;
  4392                           
  4393                           	psect	text24
  4394   0019FC                     __ptext24:
  4395                           	callstack 0
  4396   0019FC                     _EUSART1_SetOverrunErrorHandler:
  4397                           	callstack 25
  4398   0019FC                     
  4399                           ;mcc_generated_files/eusart1.c: 171:     EUSART1_OverrunErrorHandler = interruptHandler;
  4400   0019FC  C005  F1FE         	movff	EUSART1_SetOverrunErrorHandler@interruptHandler,_EUSART1_OverrunErrorHandler
  4401   001A00  C006  F1FF         	movff	EUSART1_SetOverrunErrorHandler@interruptHandler+1,_EUSART1_OverrunErrorHandler+1
  4402   001A04  0012               	return		;funcret
  4403   001A06                     __end_of_EUSART1_SetOverrunErrorHandler:
  4404                           	callstack 0
  4405                           
  4406 ;; *************** function _EUSART1_SetFramingErrorHandler *****************
  4407 ;; Defined at:
  4408 ;;		line 166 in file "mcc_generated_files/eusart1.c"
  4409 ;; Parameters:    Size  Location     Type
  4410 ;;  interruptHan    2    4[COMRAM] PTR FTN()void 
  4411 ;;		 -> EUSART1_DefaultFramingErrorHandler(1), 
  4412 ;; Auto vars:     Size  Location     Type
  4413 ;;		None
  4414 ;; Return value:  Size  Location     Type
  4415 ;;                  1    wreg      void 
  4416 ;; Registers used:
  4417 ;;		wreg, status,2, status,0
  4418 ;; Tracked objects:
  4419 ;;		On entry : 0/0
  4420 ;;		On exit  : 0/0
  4421 ;;		Unchanged: 0/0
  4422 ;; Data sizes:     COMRAM   BANK0   BANK1   BANK2   BANK3   BANK4   BANK5   BANK6   BANK7   BANK8   BANK9  BANK10  BANK1
      +1  BANK12  BANK13  BANK14  BANK15
  4423 ;;      Params:         2       0       0       0       0       0       0       0       0       0       0       0       
      +0       0       0       0       0
  4424 ;;      Locals:         0       0       0       0       0       0       0       0       0       0       0       0       
      +0       0       0       0       0
  4425 ;;      Temps:          0       0       0       0       0       0       0       0       0       0       0       0       
      +0       0       0       0       0
  4426 ;;      Totals:         2       0       0       0       0       0       0       0       0       0       0       0       
      +0       0       0       0       0
  4427 ;;Total ram usage:        2 bytes
  4428 ;; Hardware stack levels used: 1
  4429 ;; Hardware stack levels required when called: 3
  4430 ;; This function calls:
  4431 ;;		Nothing
  4432 ;; This function is called by:
  4433 ;;		_EUSART1_Initialize
  4434 ;; This function uses a non-reentrant model
  4435 ;;
  4436                           
  4437                           	psect	text25
  4438   001A06                     __ptext25:
  4439                           	callstack 0
  4440   001A06                     _EUSART1_SetFramingErrorHandler:
  4441                           	callstack 25
  4442   001A06                     
  4443                           ;mcc_generated_files/eusart1.c: 167:     EUSART1_FramingErrorHandler = interruptHandler;
  4444   001A06  C005  F0FD         	movff	EUSART1_SetFramingErrorHandler@interruptHandler,_EUSART1_FramingErrorHandler
  4445   001A0A  C006  F0FE         	movff	EUSART1_SetFramingErrorHandler@interruptHandler+1,_EUSART1_FramingErrorHandler+1
  4446   001A0E  0012               	return		;funcret
  4447   001A10                     __end_of_EUSART1_SetFramingErrorHandler:
  4448                           	callstack 0
  4449                           
  4450 ;; *************** function _EUSART1_SetErrorHandler *****************
  4451 ;; Defined at:
  4452 ;;		line 174 in file "mcc_generated_files/eusart1.c"
  4453 ;; Parameters:    Size  Location     Type
  4454 ;;  interruptHan    2    4[COMRAM] PTR FTN()void 
  4455 ;;		 -> EUSART1_DefaultErrorHandler(1), 
  4456 ;; Auto vars:     Size  Location     Type
  4457 ;;		None
  4458 ;; Return value:  Size  Location     Type
  4459 ;;                  1    wreg      void 
  4460 ;; Registers used:
  4461 ;;		wreg, status,2, status,0
  4462 ;; Tracked objects:
  4463 ;;		On entry : 0/0
  4464 ;;		On exit  : 0/0
  4465 ;;		Unchanged: 0/0
  4466 ;; Data sizes:     COMRAM   BANK0   BANK1   BANK2   BANK3   BANK4   BANK5   BANK6   BANK7   BANK8   BANK9  BANK10  BANK1
      +1  BANK12  BANK13  BANK14  BANK15
  4467 ;;      Params:         2       0       0       0       0       0       0       0       0       0       0       0       
      +0       0       0       0       0
  4468 ;;      Locals:         0       0       0       0       0       0       0       0       0       0       0       0       
      +0       0       0       0       0
  4469 ;;      Temps:          0       0       0       0       0       0       0       0       0       0       0       0       
      +0       0       0       0       0
  4470 ;;      Totals:         2       0       0       0       0       0       0       0       0       0       0       0       
      +0       0       0       0       0
  4471 ;;Total ram usage:        2 bytes
  4472 ;; Hardware stack levels used: 1
  4473 ;; Hardware stack levels required when called: 3
  4474 ;; This function calls:
  4475 ;;		Nothing
  4476 ;; This function is called by:
  4477 ;;		_EUSART1_Initialize
  4478 ;; This function uses a non-reentrant model
  4479 ;;
  4480                           
  4481                           	psect	text26
  4482   001A10                     __ptext26:
  4483                           	callstack 0
  4484   001A10                     _EUSART1_SetErrorHandler:
  4485                           	callstack 25
  4486   001A10                     
  4487                           ;mcc_generated_files/eusart1.c: 175:     EUSART1_ErrorHandler = interruptHandler;
  4488   001A10  C005  F2FE         	movff	EUSART1_SetErrorHandler@interruptHandler,_EUSART1_ErrorHandler
  4489   001A14  C006  F2FF         	movff	EUSART1_SetErrorHandler@interruptHandler+1,_EUSART1_ErrorHandler+1
  4490   001A18  0012               	return		;funcret
  4491   001A1A                     __end_of_EUSART1_SetErrorHandler:
  4492                           	callstack 0
  4493                           
  4494 ;; *************** function _I2C_ModuleStop *****************
  4495 ;; Defined at:
  4496 ;;		line 86 in file "my_i2c_pic18.c"
  4497 ;; Parameters:    Size  Location     Type
  4498 ;;		None
  4499 ;; Auto vars:     Size  Location     Type
  4500 ;;		None
  4501 ;; Return value:  Size  Location     Type
  4502 ;;                  1    wreg      void 
  4503 ;; Registers used:
  4504 ;;		None
  4505 ;; Tracked objects:
  4506 ;;		On entry : 0/0
  4507 ;;		On exit  : 0/0
  4508 ;;		Unchanged: 0/0
  4509 ;; Data sizes:     COMRAM   BANK0   BANK1   BANK2   BANK3   BANK4   BANK5   BANK6   BANK7   BANK8   BANK9  BANK10  BANK1
      +1  BANK12  BANK13  BANK14  BANK15
  4510 ;;      Params:         0       0       0       0       0       0       0       0       0       0       0       0       
      +0       0       0       0       0
  4511 ;;      Locals:         0       0       0       0       0       0       0       0       0       0       0       0       
      +0       0       0       0       0
  4512 ;;      Temps:          0       0       0       0       0       0       0       0       0       0       0       0       
      +0       0       0       0       0
  4513 ;;      Totals:         0       0       0       0       0       0       0       0       0       0       0       0       
      +0       0       0       0       0
  4514 ;;Total ram usage:        0 bytes
  4515 ;; Hardware stack levels used: 1
  4516 ;; Hardware stack levels required when called: 3
  4517 ;; This function calls:
  4518 ;;		Nothing
  4519 ;; This function is called by:
  4520 ;;		_main
  4521 ;; This function uses a non-reentrant model
  4522 ;;
  4523                           
  4524                           	psect	text27
  4525   001A2C                     __ptext27:
  4526                           	callstack 0
  4527   001A2C                     _I2C_ModuleStop:
  4528                           	callstack 27
  4529   001A2C                     
  4530                           ;my_i2c_pic18.c: 88:     SSP1CON1bits.SSPEN = 0;
  4531   001A2C  9AC6               	bcf	198,5,c	;volatile
  4532   001A2E  0012               	return		;funcret
  4533   001A30                     __end_of_I2C_ModuleStop:
  4534                           	callstack 0
  4535                           
  4536 ;; *************** function _I2C_ModuleStart *****************
  4537 ;; Defined at:
  4538 ;;		line 65 in file "my_i2c_pic18.c"
  4539 ;; Parameters:    Size  Location     Type
  4540 ;;  clock_output    4   17[COMRAM] unsigned long 
  4541 ;; Auto vars:     Size  Location     Type
  4542 ;;		None
  4543 ;; Return value:  Size  Location     Type
  4544 ;;                  1    wreg      void 
  4545 ;; Registers used:
  4546 ;;		wreg, status,2, status,0, cstack
  4547 ;; Tracked objects:
  4548 ;;		On entry : 0/0
  4549 ;;		On exit  : 0/0
  4550 ;;		Unchanged: 0/0
  4551 ;; Data sizes:     COMRAM   BANK0   BANK1   BANK2   BANK3   BANK4   BANK5   BANK6   BANK7   BANK8   BANK9  BANK10  BANK1
      +1  BANK12  BANK13  BANK14  BANK15
  4552 ;;      Params:         4       0       0       0       0       0       0       0       0       0       0       0       
      +0       0       0       0       0
  4553 ;;      Locals:         0       0       0       0       0       0       0       0       0       0       0       0       
      +0       0       0       0       0
  4554 ;;      Temps:          0       0       0       0       0       0       0       0       0       0       0       0       
      +0       0       0       0       0
  4555 ;;      Totals:         4       0       0       0       0       0       0       0       0       0       0       0       
      +0       0       0       0       0
  4556 ;;Total ram usage:        4 bytes
  4557 ;; Hardware stack levels used: 1
  4558 ;; Hardware stack levels required when called: 4
  4559 ;; This function calls:
  4560 ;;		___lldiv
  4561 ;; This function is called by:
  4562 ;;		_main
  4563 ;; This function uses a non-reentrant model
  4564 ;;
  4565                           
  4566                           	psect	text28
  4567   0015D4                     __ptext28:
  4568                           	callstack 0
  4569   0015D4                     _I2C_ModuleStart:
  4570                           	callstack 26
  4571   0015D4                     
  4572                           ;my_i2c_pic18.c: 65: void I2C_ModuleStart(uint32_t clock_output);my_i2c_pic18.c: 66: {;m
      +                          y_i2c_pic18.c: 67:     SSP1STAT &= 0x3F;
  4573   0015D4  0E3F               	movlw	63
  4574   0015D6  16C7               	andwf	199,f,c	;volatile
  4575   0015D8                     
  4576                           ;my_i2c_pic18.c: 68:     SSP1CON2 = 0x00;
  4577   0015D8  0E00               	movlw	0
  4578   0015DA  6EC5               	movwf	197,c	;volatile
  4579   0015DC                     
  4580                           ;my_i2c_pic18.c: 71:     if(clock_output == 400000UL)
  4581   0015DC  0E80               	movlw	128
  4582   0015DE  1812               	xorwf	I2C_ModuleStart@clock_output^0,w,c
  4583   0015E0  E10B               	bnz	u5311
  4584   0015E2  0E1A               	movlw	26
  4585   0015E4  1813               	xorwf	(I2C_ModuleStart@clock_output+1)^0,w,c
  4586   0015E6  E108               	bnz	u5311
  4587   0015E8  0E06               	movlw	6
  4588   0015EA  1814               	xorwf	(I2C_ModuleStart@clock_output+2)^0,w,c
  4589   0015EC  1015               	iorwf	(I2C_ModuleStart@clock_output+3)^0,w,c
  4590   0015EE  A4D8               	btfss	status,2,c
  4591   0015F0  EFFC  F00A         	goto	u5311
  4592   0015F4  EFFE  F00A         	goto	u5310
  4593   0015F8                     u5311:
  4594   0015F8  EF01  F00B         	goto	l7602
  4595   0015FC                     u5310:
  4596   0015FC                     
  4597                           ;my_i2c_pic18.c: 72:     {;my_i2c_pic18.c: 73:         SSP1STAT |= 0b00000000;
  4598   0015FC  50C7               	movf	199,w,c	;volatile
  4599                           
  4600                           ;my_i2c_pic18.c: 74:     }
  4601   0015FE  EF02  F00B         	goto	l7604
  4602   001602                     l7602:
  4603                           
  4604                           ;my_i2c_pic18.c: 76:     {;my_i2c_pic18.c: 77:         SSP1STAT |= 0b10000000;
  4605   001602  8EC7               	bsf	199,7,c	;volatile
  4606   001604                     l7604:
  4607                           
  4608                           ;my_i2c_pic18.c: 80:     SSP1CON1 = 0b00001000;
  4609   001604  0E08               	movlw	8
  4610   001606  6EC6               	movwf	198,c	;volatile
  4611   001608                     
  4612                           ;my_i2c_pic18.c: 81:     SSP1ADD = (uint8_t) ((uint32_t)((16000000) / 4) / (uint32_t)clo
      +                          ck_output) - 1;
  4613   001608  0E00               	movlw	0
  4614   00160A  6E05               	movwf	___lldiv@dividend^0,c
  4615   00160C  0E09               	movlw	9
  4616   00160E  6E06               	movwf	(___lldiv@dividend+1)^0,c
  4617   001610  0E3D               	movlw	61
  4618   001612  6E07               	movwf	(___lldiv@dividend+2)^0,c
  4619   001614  0E00               	movlw	0
  4620   001616  6E08               	movwf	(___lldiv@dividend+3)^0,c
  4621   001618  C012  F009         	movff	I2C_ModuleStart@clock_output,___lldiv@divisor
  4622   00161C  C013  F00A         	movff	I2C_ModuleStart@clock_output+1,___lldiv@divisor+1
  4623   001620  C014  F00B         	movff	I2C_ModuleStart@clock_output+2,___lldiv@divisor+2
  4624   001624  C015  F00C         	movff	I2C_ModuleStart@clock_output+3,___lldiv@divisor+3
  4625   001628  EC9A  F009         	call	___lldiv	;wreg free
  4626   00162C  0405               	decf	?___lldiv^0,w,c
  4627   00162E  6EC8               	movwf	200,c	;volatile
  4628   001630                     
  4629                           ;my_i2c_pic18.c: 83:     SSP1CON1 |= 0b00100000;
  4630   001630  8AC6               	bsf	198,5,c	;volatile
  4631   001632  0012               	return		;funcret
  4632   001634                     __end_of_I2C_ModuleStart:
  4633                           	callstack 0
  4634                           
  4635 ;; *************** function ___lldiv *****************
  4636 ;; Defined at:
  4637 ;;		line 7 in file "C:\Program Files\Microchip\xc8\v2.41\pic\sources\c99\common\__lldiv.c"
  4638 ;; Parameters:    Size  Location     Type
  4639 ;;  dividend        4    4[COMRAM] unsigned long 
  4640 ;;  divisor         4    8[COMRAM] unsigned long 
  4641 ;; Auto vars:     Size  Location     Type
  4642 ;;  quotient        4   12[COMRAM] unsigned long 
  4643 ;;  counter         1   16[COMRAM] unsigned char 
  4644 ;; Return value:  Size  Location     Type
  4645 ;;                  4    4[COMRAM] unsigned long 
  4646 ;; Registers used:
  4647 ;;		wreg, status,2, status,0
  4648 ;; Tracked objects:
  4649 ;;		On entry : 0/0
  4650 ;;		On exit  : 0/0
  4651 ;;		Unchanged: 0/0
  4652 ;; Data sizes:     COMRAM   BANK0   BANK1   BANK2   BANK3   BANK4   BANK5   BANK6   BANK7   BANK8   BANK9  BANK10  BANK1
      +1  BANK12  BANK13  BANK14  BANK15
  4653 ;;      Params:         8       0       0       0       0       0       0       0       0       0       0       0       
      +0       0       0       0       0
  4654 ;;      Locals:         5       0       0       0       0       0       0       0       0       0       0       0       
      +0       0       0       0       0
  4655 ;;      Temps:          0       0       0       0       0       0       0       0       0       0       0       0       
      +0       0       0       0       0
  4656 ;;      Totals:        13       0       0       0       0       0       0       0       0       0       0       0       
      +0       0       0       0       0
  4657 ;;Total ram usage:       13 bytes
  4658 ;; Hardware stack levels used: 1
  4659 ;; Hardware stack levels required when called: 3
  4660 ;; This function calls:
  4661 ;;		Nothing
  4662 ;; This function is called by:
  4663 ;;		_I2C_ModuleStart
  4664 ;; This function uses a non-reentrant model
  4665 ;;
  4666                           
  4667                           	psect	text29
  4668   001334                     __ptext29:
  4669                           	callstack 0
  4670   001334                     ___lldiv:
  4671                           	callstack 26
  4672   001334  0E00               	movlw	0
  4673   001336  6E0D               	movwf	___lldiv@quotient^0,c
  4674   001338  0E00               	movlw	0
  4675   00133A  6E0E               	movwf	(___lldiv@quotient+1)^0,c
  4676   00133C  0E00               	movlw	0
  4677   00133E  6E0F               	movwf	(___lldiv@quotient+2)^0,c
  4678   001340  0E00               	movlw	0
  4679   001342  6E10               	movwf	(___lldiv@quotient+3)^0,c
  4680   001344  5009               	movf	___lldiv@divisor^0,w,c
  4681   001346  100A               	iorwf	(___lldiv@divisor+1)^0,w,c
  4682   001348  100B               	iorwf	(___lldiv@divisor+2)^0,w,c
  4683   00134A  100C               	iorwf	(___lldiv@divisor+3)^0,w,c
  4684   00134C  B4D8               	btfsc	status,2,c
  4685   00134E  EFAB  F009         	goto	u5271
  4686   001352  EFAD  F009         	goto	u5270
  4687   001356                     u5271:
  4688   001356  EFE3  F009         	goto	l1381
  4689   00135A                     u5270:
  4690   00135A  0E01               	movlw	1
  4691   00135C  6E11               	movwf	___lldiv@counter^0,c
  4692   00135E  EFB7  F009         	goto	l7546
  4693   001362                     l7544:
  4694   001362  90D8               	bcf	status,0,c
  4695   001364  3609               	rlcf	___lldiv@divisor^0,f,c
  4696   001366  360A               	rlcf	(___lldiv@divisor+1)^0,f,c
  4697   001368  360B               	rlcf	(___lldiv@divisor+2)^0,f,c
  4698   00136A  360C               	rlcf	(___lldiv@divisor+3)^0,f,c
  4699   00136C  2A11               	incf	___lldiv@counter^0,f,c
  4700   00136E                     l7546:
  4701   00136E  AE0C               	btfss	(___lldiv@divisor+3)^0,7,c
  4702   001370  EFBC  F009         	goto	u5281
  4703   001374  EFBE  F009         	goto	u5280
  4704   001378                     u5281:
  4705   001378  EFB1  F009         	goto	l7544
  4706   00137C                     u5280:
  4707   00137C                     l7548:
  4708   00137C  90D8               	bcf	status,0,c
  4709   00137E  360D               	rlcf	___lldiv@quotient^0,f,c
  4710   001380  360E               	rlcf	(___lldiv@quotient+1)^0,f,c
  4711   001382  360F               	rlcf	(___lldiv@quotient+2)^0,f,c
  4712   001384  3610               	rlcf	(___lldiv@quotient+3)^0,f,c
  4713   001386  5009               	movf	___lldiv@divisor^0,w,c
  4714   001388  5C05               	subwf	___lldiv@dividend^0,w,c
  4715   00138A  500A               	movf	(___lldiv@divisor+1)^0,w,c
  4716   00138C  5806               	subwfb	(___lldiv@dividend+1)^0,w,c
  4717   00138E  500B               	movf	(___lldiv@divisor+2)^0,w,c
  4718   001390  5807               	subwfb	(___lldiv@dividend+2)^0,w,c
  4719   001392  500C               	movf	(___lldiv@divisor+3)^0,w,c
  4720   001394  5808               	subwfb	(___lldiv@dividend+3)^0,w,c
  4721   001396  A0D8               	btfss	status,0,c
  4722   001398  EFD0  F009         	goto	u5291
  4723   00139C  EFD2  F009         	goto	u5290
  4724   0013A0                     u5291:
  4725   0013A0  EFDB  F009         	goto	l7556
  4726   0013A4                     u5290:
  4727   0013A4  5009               	movf	___lldiv@divisor^0,w,c
  4728   0013A6  5E05               	subwf	___lldiv@dividend^0,f,c
  4729   0013A8  500A               	movf	(___lldiv@divisor+1)^0,w,c
  4730   0013AA  5A06               	subwfb	(___lldiv@dividend+1)^0,f,c
  4731   0013AC  500B               	movf	(___lldiv@divisor+2)^0,w,c
  4732   0013AE  5A07               	subwfb	(___lldiv@dividend+2)^0,f,c
  4733   0013B0  500C               	movf	(___lldiv@divisor+3)^0,w,c
  4734   0013B2  5A08               	subwfb	(___lldiv@dividend+3)^0,f,c
  4735   0013B4  800D               	bsf	___lldiv@quotient^0,0,c
  4736   0013B6                     l7556:
  4737   0013B6  90D8               	bcf	status,0,c
  4738   0013B8  320C               	rrcf	(___lldiv@divisor+3)^0,f,c
  4739   0013BA  320B               	rrcf	(___lldiv@divisor+2)^0,f,c
  4740   0013BC  320A               	rrcf	(___lldiv@divisor+1)^0,f,c
  4741   0013BE  3209               	rrcf	___lldiv@divisor^0,f,c
  4742   0013C0  2E11               	decfsz	___lldiv@counter^0,f,c
  4743   0013C2  EFBE  F009         	goto	l7548
  4744   0013C6                     l1381:
  4745   0013C6  C00D  F005         	movff	___lldiv@quotient,?___lldiv
  4746   0013CA  C00E  F006         	movff	___lldiv@quotient+1,?___lldiv+1
  4747   0013CE  C00F  F007         	movff	___lldiv@quotient+2,?___lldiv+2
  4748   0013D2  C010  F008         	movff	___lldiv@quotient+3,?___lldiv+3
  4749   0013D6  0012               	return		;funcret
  4750   0013D8                     __end_of___lldiv:
  4751                           	callstack 0
  4752                           
  4753 ;; *************** function _I2C_HWini *****************
  4754 ;; Defined at:
  4755 ;;		line 57 in file "my_i2c_pic18.c"
  4756 ;; Parameters:    Size  Location     Type
  4757 ;;		None
  4758 ;; Auto vars:     Size  Location     Type
  4759 ;;		None
  4760 ;; Return value:  Size  Location     Type
  4761 ;;                  1    wreg      void 
  4762 ;; Registers used:
  4763 ;;		None
  4764 ;; Tracked objects:
  4765 ;;		On entry : 0/0
  4766 ;;		On exit  : 0/0
  4767 ;;		Unchanged: 0/0
  4768 ;; Data sizes:     COMRAM   BANK0   BANK1   BANK2   BANK3   BANK4   BANK5   BANK6   BANK7   BANK8   BANK9  BANK10  BANK1
      +1  BANK12  BANK13  BANK14  BANK15
  4769 ;;      Params:         0       0       0       0       0       0       0       0       0       0       0       0       
      +0       0       0       0       0
  4770 ;;      Locals:         0       0       0       0       0       0       0       0       0       0       0       0       
      +0       0       0       0       0
  4771 ;;      Temps:          0       0       0       0       0       0       0       0       0       0       0       0       
      +0       0       0       0       0
  4772 ;;      Totals:         0       0       0       0       0       0       0       0       0       0       0       0       
      +0       0       0       0       0
  4773 ;;Total ram usage:        0 bytes
  4774 ;; Hardware stack levels used: 1
  4775 ;; Hardware stack levels required when called: 3
  4776 ;; This function calls:
  4777 ;;		Nothing
  4778 ;; This function is called by:
  4779 ;;		_main
  4780 ;; This function uses a non-reentrant model
  4781 ;;
  4782                           
  4783                           	psect	text30
  4784   001A22                     __ptext30:
  4785                           	callstack 0
  4786   001A22                     _I2C_HWini:
  4787                           	callstack 27
  4788   001A22                     
  4789                           ;my_i2c_pic18.c: 61:     TRISCbits.TRISC3 = 1;
  4790   001A22  8694               	bsf	148,3,c	;volatile
  4791                           
  4792                           ;my_i2c_pic18.c: 62:     TRISCbits.TRISC4 = 1;
  4793   001A24  8894               	bsf	148,4,c	;volatile
  4794   001A26  0012               	return		;funcret
  4795   001A28                     __end_of_I2C_HWini:
  4796                           	callstack 0
  4797                           
  4798 ;; *************** function _I2C2_M_Poll *****************
  4799 ;; Defined at:
  4800 ;;		line 233 in file "my_i2c_pic18.c"
  4801 ;; Parameters:    Size  Location     Type
  4802 ;;  DevAddr         1    wreg     unsigned char 
  4803 ;; Auto vars:     Size  Location     Type
  4804 ;;  DevAddr         1   14[COMRAM] unsigned char 
  4805 ;;  retval          2   16[COMRAM] int 
  4806 ;;  SlaveAddr       1   15[COMRAM] unsigned char 
  4807 ;; Return value:  Size  Location     Type
  4808 ;;                  2   12[COMRAM] short 
  4809 ;; Registers used:
  4810 ;;		wreg, status,2, status,0, cstack
  4811 ;; Tracked objects:
  4812 ;;		On entry : 0/0
  4813 ;;		On exit  : 0/0
  4814 ;;		Unchanged: 0/0
  4815 ;; Data sizes:     COMRAM   BANK0   BANK1   BANK2   BANK3   BANK4   BANK5   BANK6   BANK7   BANK8   BANK9  BANK10  BANK1
      +1  BANK12  BANK13  BANK14  BANK15
  4816 ;;      Params:         2       0       0       0       0       0       0       0       0       0       0       0       
      +0       0       0       0       0
  4817 ;;      Locals:         4       0       0       0       0       0       0       0       0       0       0       0       
      +0       0       0       0       0
  4818 ;;      Temps:          0       0       0       0       0       0       0       0       0       0       0       0       
      +0       0       0       0       0
  4819 ;;      Totals:         6       0       0       0       0       0       0       0       0       0       0       0       
      +0       0       0       0       0
  4820 ;;Total ram usage:        6 bytes
  4821 ;; Hardware stack levels used: 1
  4822 ;; Hardware stack levels required when called: 5
  4823 ;; This function calls:
  4824 ;;		_I2C2_M_ClearErrors
  4825 ;;		_I2C2_M_RecoverBus
  4826 ;;		_I2C2_M_Start
  4827 ;;		_I2C2_M_Stop
  4828 ;;		_I2C2_M_WriteByte
  4829 ;; This function is called by:
  4830 ;;		_main
  4831 ;; This function uses a non-reentrant model
  4832 ;;
  4833                           
  4834                           	psect	text31
  4835   00110A                     __ptext31:
  4836                           	callstack 0
  4837   00110A                     _I2C2_M_Poll:
  4838                           	callstack 25
  4839                           
  4840                           ;incstack = 0
  4841                           ;I2C2_M_Poll@DevAddr stored from wreg
  4842   00110A  6E0F               	movwf	I2C2_M_Poll@DevAddr^0,c
  4843   00110C                     
  4844                           ;my_i2c_pic18.c: 233: int16_t I2C2_M_Poll(uint8_t DevAddr);my_i2c_pic18.c: 234: {;my_i2c
      +                          _pic18.c: 235:     int retval;;my_i2c_pic18.c: 236:     uint8_t SlaveAddr;;my_i2c_pic18.
      +                          c: 238:     SlaveAddr = DevAddr | 0;
  4845   00110C  C00F  F010         	movff	I2C2_M_Poll@DevAddr,I2C2_M_Poll@SlaveAddr
  4846   001110                     
  4847                           ;my_i2c_pic18.c: 240:     if((I2Cflags & 0x0001))
  4848   001110  A057               	btfss	_I2Cflags^0,0,c
  4849   001112  EF8D  F008         	goto	u5321
  4850   001116  EF8F  F008         	goto	u5320
  4851   00111A                     u5321:
  4852   00111A  EFA3  F008         	goto	l7620
  4853   00111E                     u5320:
  4854   00111E                     
  4855                           ;my_i2c_pic18.c: 241:     {;my_i2c_pic18.c: 242:         I2C2_M_ClearErrors();
  4856   00111E  EC0D  F00D         	call	_I2C2_M_ClearErrors	;wreg free
  4857   001122                     
  4858                           ;my_i2c_pic18.c: 243:         if(I2C2_M_RecoverBus() == 0)
  4859   001122  EC11  F00C         	call	_I2C2_M_RecoverBus	;wreg free
  4860   001126  5009               	movf	?_I2C2_M_RecoverBus^0,w,c
  4861   001128  100A               	iorwf	(?_I2C2_M_RecoverBus+1)^0,w,c
  4862   00112A  A4D8               	btfss	status,2,c
  4863   00112C  EF9A  F008         	goto	u5331
  4864   001130  EF9C  F008         	goto	u5330
  4865   001134                     u5331:
  4866   001134  EF9F  F008         	goto	l1086
  4867   001138                     u5330:
  4868   001138                     
  4869                           ;my_i2c_pic18.c: 244:         {;my_i2c_pic18.c: 245:             I2Cflags &= ~0x0001;
  4870   001138  9057               	bcf	_I2Cflags^0,0,c
  4871                           
  4872                           ;my_i2c_pic18.c: 246:         } else
  4873   00113A  EFA3  F008         	goto	l7620
  4874   00113E                     l1086:
  4875                           
  4876                           ;my_i2c_pic18.c: 247:         {;my_i2c_pic18.c: 248:             return -1;
  4877   00113E  680D               	setf	?_I2C2_M_Poll^0,c
  4878   001140  680E               	setf	(?_I2C2_M_Poll+1)^0,c
  4879   001142  EFE9  F008         	goto	l1088
  4880   001146                     l7620:
  4881                           
  4882                           ;my_i2c_pic18.c: 252:     if(I2C2_M_Start() == 0)
  4883   001146  ECEC  F009         	call	_I2C2_M_Start	;wreg free
  4884   00114A  5005               	movf	?_I2C2_M_Start^0,w,c
  4885   00114C  1006               	iorwf	(?_I2C2_M_Start+1)^0,w,c
  4886   00114E  A4D8               	btfss	status,2,c
  4887   001150  EFAC  F008         	goto	u5341
  4888   001154  EFAE  F008         	goto	u5340
  4889   001158                     u5341:
  4890   001158  EFE6  F008         	goto	l7644
  4891   00115C                     u5340:
  4892   00115C                     
  4893                           ;my_i2c_pic18.c: 253:     {;my_i2c_pic18.c: 254:         retval = I2C2_M_WriteByte((char
      +                          ) SlaveAddr);
  4894   00115C  5010               	movf	I2C2_M_Poll@SlaveAddr^0,w,c
  4895   00115E  EC47  F009         	call	_I2C2_M_WriteByte
  4896   001162  C005  F011         	movff	?_I2C2_M_WriteByte,I2C2_M_Poll@retval
  4897   001166  C006  F012         	movff	?_I2C2_M_WriteByte+1,I2C2_M_Poll@retval+1
  4898                           
  4899                           ;my_i2c_pic18.c: 255:         if(I2C2_M_Stop() == 0)
  4900   00116A  EC7B  F00A         	call	_I2C2_M_Stop	;wreg free
  4901   00116E  5005               	movf	?_I2C2_M_Stop^0,w,c
  4902   001170  1006               	iorwf	(?_I2C2_M_Stop+1)^0,w,c
  4903   001172  A4D8               	btfss	status,2,c
  4904   001174  EFBE  F008         	goto	u5351
  4905   001178  EFC0  F008         	goto	u5350
  4906   00117C                     u5351:
  4907   00117C  EFE6  F008         	goto	l7644
  4908   001180                     u5350:
  4909   001180                     
  4910                           ;my_i2c_pic18.c: 256:         {;my_i2c_pic18.c: 257:             if(retval == 0)
  4911   001180  5011               	movf	I2C2_M_Poll@retval^0,w,c
  4912   001182  1012               	iorwf	(I2C2_M_Poll@retval+1)^0,w,c
  4913   001184  A4D8               	btfss	status,2,c
  4914   001186  EFC7  F008         	goto	u5361
  4915   00118A  EFC9  F008         	goto	u5360
  4916   00118E                     u5361:
  4917   00118E  EFCF  F008         	goto	l7632
  4918   001192                     u5360:
  4919   001192                     
  4920                           ;my_i2c_pic18.c: 258:             {;my_i2c_pic18.c: 259:                 return 0;
  4921   001192  0E00               	movlw	0
  4922   001194  6E0E               	movwf	(?_I2C2_M_Poll+1)^0,c
  4923   001196  0E00               	movlw	0
  4924   001198  6E0D               	movwf	?_I2C2_M_Poll^0,c
  4925   00119A  EFE9  F008         	goto	l1088
  4926   00119E                     l7632:
  4927   00119E  0EFA               	movlw	250
  4928   0011A0  1811               	xorwf	I2C2_M_Poll@retval^0,w,c
  4929   0011A2  E106               	bnz	u5371
  4930   0011A4  2812               	incf	(I2C2_M_Poll@retval+1)^0,w,c
  4931   0011A6  A4D8               	btfss	status,2,c
  4932   0011A8  EFD8  F008         	goto	u5371
  4933   0011AC  EFDA  F008         	goto	u5370
  4934   0011B0                     u5371:
  4935   0011B0  EFE0  F008         	goto	l7640
  4936   0011B4                     u5370:
  4937   0011B4                     
  4938                           ;my_i2c_pic18.c: 261:             {;my_i2c_pic18.c: 262:                 return -103;
  4939   0011B4  0EFF               	movlw	255
  4940   0011B6  6E0E               	movwf	(?_I2C2_M_Poll+1)^0,c
  4941   0011B8  0E99               	movlw	153
  4942   0011BA  6E0D               	movwf	?_I2C2_M_Poll^0,c
  4943   0011BC  EFE9  F008         	goto	l1088
  4944   0011C0                     l7640:
  4945                           
  4946                           ;my_i2c_pic18.c: 264:             {;my_i2c_pic18.c: 265:                 return -102;
  4947   0011C0  0EFF               	movlw	255
  4948   0011C2  6E0E               	movwf	(?_I2C2_M_Poll+1)^0,c
  4949   0011C4  0E9A               	movlw	154
  4950   0011C6  6E0D               	movwf	?_I2C2_M_Poll^0,c
  4951   0011C8  EFE9  F008         	goto	l1088
  4952   0011CC                     l7644:
  4953                           
  4954                           ;my_i2c_pic18.c: 271:     I2Cflags |= 0x0001;
  4955   0011CC  8057               	bsf	_I2Cflags^0,0,c
  4956   0011CE  EFE0  F008         	goto	l7640
  4957   0011D2                     l1088:
  4958   0011D2  0012               	return		;funcret
  4959   0011D4                     __end_of_I2C2_M_Poll:
  4960                           	callstack 0
  4961                           
  4962 ;; *************** function _I2C2_M_RecoverBus *****************
  4963 ;; Defined at:
  4964 ;;		line 494 in file "my_i2c_pic18.c"
  4965 ;; Parameters:    Size  Location     Type
  4966 ;;		None
  4967 ;; Auto vars:     Size  Location     Type
  4968 ;;  status          2   10[COMRAM] short 
  4969 ;; Return value:  Size  Location     Type
  4970 ;;                  2    8[COMRAM] short 
  4971 ;; Registers used:
  4972 ;;		wreg, status,2, status,0, cstack
  4973 ;; Tracked objects:
  4974 ;;		On entry : 0/0
  4975 ;;		On exit  : 0/0
  4976 ;;		Unchanged: 0/0
  4977 ;; Data sizes:     COMRAM   BANK0   BANK1   BANK2   BANK3   BANK4   BANK5   BANK6   BANK7   BANK8   BANK9  BANK10  BANK1
      +1  BANK12  BANK13  BANK14  BANK15
  4978 ;;      Params:         2       0       0       0       0       0       0       0       0       0       0       0       
      +0       0       0       0       0
  4979 ;;      Locals:         2       0       0       0       0       0       0       0       0       0       0       0       
      +0       0       0       0       0
  4980 ;;      Temps:          0       0       0       0       0       0       0       0       0       0       0       0       
      +0       0       0       0       0
  4981 ;;      Totals:         4       0       0       0       0       0       0       0       0       0       0       0       
      +0       0       0       0       0
  4982 ;;Total ram usage:        4 bytes
  4983 ;; Hardware stack levels used: 1
  4984 ;; Hardware stack levels required when called: 4
  4985 ;; This function calls:
  4986 ;;		_I2C2_M_BusReset
  4987 ;; This function is called by:
  4988 ;;		_I2C2_M_Poll
  4989 ;; This function uses a non-reentrant model
  4990 ;;
  4991                           
  4992                           	psect	text32
  4993   001822                     __ptext32:
  4994                           	callstack 0
  4995   001822                     _I2C2_M_RecoverBus:
  4996                           	callstack 25
  4997   001822                     
  4998                           ;my_i2c_pic18.c: 496:     int16_t status;;my_i2c_pic18.c: 504:     SSP1CON1bits.SSPEN1 =
      +                           0;
  4999   001822  9AC6               	bcf	198,5,c	;volatile
  5000   001824                     
  5001                           ;my_i2c_pic18.c: 505:     status = I2C2_M_BusReset();
  5002   001824  ECEA  F008         	call	_I2C2_M_BusReset	;wreg free
  5003   001828  C005  F00B         	movff	?_I2C2_M_BusReset,I2C2_M_RecoverBus@status
  5004   00182C  C006  F00C         	movff	?_I2C2_M_BusReset+1,I2C2_M_RecoverBus@status+1
  5005   001830                     
  5006                           ;my_i2c_pic18.c: 506:     if(status > 0)
  5007   001830  BE0C               	btfsc	(I2C2_M_RecoverBus@status+1)^0,7,c
  5008   001832  EF23  F00C         	goto	u5051
  5009   001836  500C               	movf	(I2C2_M_RecoverBus@status+1)^0,w,c
  5010   001838  E108               	bnz	u5050
  5011   00183A  040B               	decf	I2C2_M_RecoverBus@status^0,w,c
  5012   00183C  A0D8               	btfss	status,0,c
  5013   00183E  EF23  F00C         	goto	u5051
  5014   001842  EF25  F00C         	goto	u5050
  5015   001846                     u5051:
  5016   001846  EF29  F00C         	goto	l1142
  5017   00184A                     u5050:
  5018   00184A                     
  5019                           ;my_i2c_pic18.c: 507:     {;my_i2c_pic18.c: 508:         return -1;
  5020   00184A  6809               	setf	?_I2C2_M_RecoverBus^0,c
  5021   00184C  680A               	setf	(?_I2C2_M_RecoverBus+1)^0,c
  5022   00184E  EF2E  F00C         	goto	l1143
  5023   001852                     l1142:
  5024                           
  5025                           ;my_i2c_pic18.c: 511:     SSP1CON1bits.SSPEN1 = 1;
  5026   001852  8AC6               	bsf	198,5,c	;volatile
  5027   001854                     
  5028                           ;my_i2c_pic18.c: 513:     return 0;
  5029   001854  0E00               	movlw	0
  5030   001856  6E0A               	movwf	(?_I2C2_M_RecoverBus+1)^0,c
  5031   001858  0E00               	movlw	0
  5032   00185A  6E09               	movwf	?_I2C2_M_RecoverBus^0,c
  5033   00185C                     l1143:
  5034   00185C  0012               	return		;funcret
  5035   00185E                     __end_of_I2C2_M_RecoverBus:
  5036                           	callstack 0
  5037                           
  5038 ;; *************** function _I2C2_M_BusReset *****************
  5039 ;; Defined at:
  5040 ;;		line 108 in file "my_i2c_pic18.c"
  5041 ;; Parameters:    Size  Location     Type
  5042 ;;		None
  5043 ;; Auto vars:     Size  Location     Type
  5044 ;;  i               2    6[COMRAM] short 
  5045 ;; Return value:  Size  Location     Type
  5046 ;;                  2    4[COMRAM] short 
  5047 ;; Registers used:
  5048 ;;		wreg, status,2, status,0
  5049 ;; Tracked objects:
  5050 ;;		On entry : 0/0
  5051 ;;		On exit  : 0/0
  5052 ;;		Unchanged: 0/0
  5053 ;; Data sizes:     COMRAM   BANK0   BANK1   BANK2   BANK3   BANK4   BANK5   BANK6   BANK7   BANK8   BANK9  BANK10  BANK1
      +1  BANK12  BANK13  BANK14  BANK15
  5054 ;;      Params:         2       0       0       0       0       0       0       0       0       0       0       0       
      +0       0       0       0       0
  5055 ;;      Locals:         2       0       0       0       0       0       0       0       0       0       0       0       
      +0       0       0       0       0
  5056 ;;      Temps:          0       0       0       0       0       0       0       0       0       0       0       0       
      +0       0       0       0       0
  5057 ;;      Totals:         4       0       0       0       0       0       0       0       0       0       0       0       
      +0       0       0       0       0
  5058 ;;Total ram usage:        4 bytes
  5059 ;; Hardware stack levels used: 1
  5060 ;; Hardware stack levels required when called: 3
  5061 ;; This function calls:
  5062 ;;		Nothing
  5063 ;; This function is called by:
  5064 ;;		_main
  5065 ;;		_I2C2_M_RecoverBus
  5066 ;; This function uses a non-reentrant model
  5067 ;;
  5068                           
  5069                           	psect	text33
  5070   0011D4                     __ptext33:
  5071                           	callstack 0
  5072   0011D4                     _I2C2_M_BusReset:
  5073                           	callstack 25
  5074   0011D4  8694               	bsf	148,3,c	;volatile
  5075   0011D6  8894               	bsf	148,4,c	;volatile
  5076   0011D8                     
  5077                           ;my_i2c_pic18.c: 115:     _delay((unsigned long)((5)*(16000000/4000000.0)));
  5078   0011D8  0E06               	movlw	6
  5079   0011DA                     u5847:
  5080   0011DA  2EE8               	decfsz	wreg,f,c
  5081   0011DC  D7FE               	bra	u5847
  5082   0011DE  D000               	nop2	
  5083   0011E0                     
  5084                           ;my_i2c_pic18.c: 117:     if(PORTCbits.RC3 == 0)
  5085   0011E0  B682               	btfsc	130,3,c	;volatile
  5086   0011E2  EFF5  F008         	goto	u4741
  5087   0011E6  EFF7  F008         	goto	u4740
  5088   0011EA                     u4741:
  5089   0011EA  EFFD  F008         	goto	l7016
  5090   0011EE                     u4740:
  5091   0011EE                     
  5092                           ;my_i2c_pic18.c: 118:     {;my_i2c_pic18.c: 119:         return -2;
  5093   0011EE  0EFF               	movlw	255
  5094   0011F0  6E06               	movwf	(?_I2C2_M_BusReset+1)^0,c
  5095   0011F2  0EFE               	movlw	254
  5096   0011F4  6E05               	movwf	?_I2C2_M_BusReset^0,c
  5097   0011F6  EF46  F009         	goto	l1054
  5098   0011FA                     l7016:
  5099                           
  5100                           ;my_i2c_pic18.c: 122:     i = 10;
  5101   0011FA  0E00               	movlw	0
  5102   0011FC  6E08               	movwf	(I2C2_M_BusReset@i+1)^0,c
  5103   0011FE  0E0A               	movlw	10
  5104   001200  6E07               	movwf	I2C2_M_BusReset@i^0,c
  5105   001202  9694               	bcf	148,3,c	;volatile
  5106   001204  EF16  F009         	goto	l7024
  5107   001208                     l1058:
  5108                           
  5109                           ;my_i2c_pic18.c: 126:     {;my_i2c_pic18.c: 127:         if(PORTCbits.RC4 == 1)
  5110   001208  A882               	btfss	130,4,c	;volatile
  5111   00120A  EF09  F009         	goto	u4751
  5112   00120E  EF0B  F009         	goto	u4750
  5113   001212                     u4751:
  5114   001212  EF0D  F009         	goto	l1061
  5115   001216                     u4750:
  5116   001216  EF23  F009         	goto	l1065
  5117   00121A                     l1061:
  5118   00121A  968B               	bcf	139,3,c	;volatile
  5119   00121C                     
  5120                           ;my_i2c_pic18.c: 132:         _delay((unsigned long)((1)*(16000000/4000000.0)));
  5121   00121C  D000               	nop2		;2 cycle nop
  5122   00121E  D000               	nop2		;2 cycle nop
  5123   001220  868B               	bsf	139,3,c	;volatile
  5124   001222                     
  5125                           ;my_i2c_pic18.c: 134:         _delay((unsigned long)((1)*(16000000/4000000.0)));
  5126   001222  D000               	nop2		;2 cycle nop
  5127   001224  D000               	nop2		;2 cycle nop
  5128   001226                     
  5129                           ;my_i2c_pic18.c: 135:         i--;
  5130   001226  0607               	decf	I2C2_M_BusReset@i^0,f,c
  5131   001228  A0D8               	btfss	status,0,c
  5132   00122A  0608               	decf	(I2C2_M_BusReset@i+1)^0,f,c
  5133   00122C                     l7024:
  5134                           
  5135                           ;my_i2c_pic18.c: 125:     while(i > 0)
  5136   00122C  BE08               	btfsc	(I2C2_M_BusReset@i+1)^0,7,c
  5137   00122E  EF23  F009         	goto	u4760
  5138   001232  5008               	movf	(I2C2_M_BusReset@i+1)^0,w,c
  5139   001234  E106               	bnz	u4761
  5140   001236  0407               	decf	I2C2_M_BusReset@i^0,w,c
  5141   001238  B0D8               	btfsc	status,0,c
  5142   00123A  EF21  F009         	goto	u4761
  5143   00123E  EF23  F009         	goto	u4760
  5144   001242                     u4761:
  5145   001242  EF04  F009         	goto	l1058
  5146   001246                     u4760:
  5147   001246                     l1065:
  5148   001246  8694               	bsf	148,3,c	;volatile
  5149   001248  8894               	bsf	148,4,c	;volatile
  5150   00124A                     
  5151                           ;my_i2c_pic18.c: 141:     if(!PORTCbits.RC4 && !PORTCbits.RC3)
  5152   00124A  B882               	btfsc	130,4,c	;volatile
  5153   00124C  EF2A  F009         	goto	u4771
  5154   001250  EF2C  F009         	goto	u4770
  5155   001254                     u4771:
  5156   001254  EF39  F009         	goto	l1070
  5157   001258                     u4770:
  5158   001258  B682               	btfsc	130,3,c	;volatile
  5159   00125A  EF31  F009         	goto	u4781
  5160   00125E  EF33  F009         	goto	u4780
  5161   001262                     u4781:
  5162   001262  EF39  F009         	goto	l1070
  5163   001266                     u4780:
  5164   001266                     
  5165                           ;my_i2c_pic18.c: 142:     {;my_i2c_pic18.c: 143:         return -3;
  5166   001266  0EFF               	movlw	255
  5167   001268  6E06               	movwf	(?_I2C2_M_BusReset+1)^0,c
  5168   00126A  0EFD               	movlw	253
  5169   00126C  6E05               	movwf	?_I2C2_M_BusReset^0,c
  5170   00126E  EF46  F009         	goto	l1054
  5171   001272                     l1070:
  5172   001272  9894               	bcf	148,4,c	;volatile
  5173   001274  988B               	bcf	139,4,c	;volatile
  5174   001276                     
  5175                           ;my_i2c_pic18.c: 148:     _delay((unsigned long)((1)*(16000000/4000000.0)));
  5176   001276  D000               	nop2		;2 cycle nop
  5177   001278  D000               	nop2		;2 cycle nop
  5178   00127A  888B               	bsf	139,4,c	;volatile
  5179   00127C                     
  5180                           ;my_i2c_pic18.c: 150:     _delay((unsigned long)((1)*(16000000/4000000.0)));
  5181   00127C  D000               	nop2		;2 cycle nop
  5182   00127E  D000               	nop2		;2 cycle nop
  5183   001280  8694               	bsf	148,3,c	;volatile
  5184   001282  8894               	bsf	148,4,c	;volatile
  5185   001284                     
  5186                           ;my_i2c_pic18.c: 153:     return 0;
  5187   001284  0E00               	movlw	0
  5188   001286  6E06               	movwf	(?_I2C2_M_BusReset+1)^0,c
  5189   001288  0E00               	movlw	0
  5190   00128A  6E05               	movwf	?_I2C2_M_BusReset^0,c
  5191   00128C                     l1054:
  5192   00128C  0012               	return		;funcret
  5193   00128E                     __end_of_I2C2_M_BusReset:
  5194                           	callstack 0
  5195                           
  5196 ;; *************** function _I2C2_M_ClearErrors *****************
  5197 ;; Defined at:
  5198 ;;		line 217 in file "my_i2c_pic18.c"
  5199 ;; Parameters:    Size  Location     Type
  5200 ;;		None
  5201 ;; Auto vars:     Size  Location     Type
  5202 ;;		None
  5203 ;; Return value:  Size  Location     Type
  5204 ;;                  1    wreg      void 
  5205 ;; Registers used:
  5206 ;;		None
  5207 ;; Tracked objects:
  5208 ;;		On entry : 0/0
  5209 ;;		On exit  : 0/0
  5210 ;;		Unchanged: 0/0
  5211 ;; Data sizes:     COMRAM   BANK0   BANK1   BANK2   BANK3   BANK4   BANK5   BANK6   BANK7   BANK8   BANK9  BANK10  BANK1
      +1  BANK12  BANK13  BANK14  BANK15
  5212 ;;      Params:         0       0       0       0       0       0       0       0       0       0       0       0       
      +0       0       0       0       0
  5213 ;;      Locals:         0       0       0       0       0       0       0       0       0       0       0       0       
      +0       0       0       0       0
  5214 ;;      Temps:          0       0       0       0       0       0       0       0       0       0       0       0       
      +0       0       0       0       0
  5215 ;;      Totals:         0       0       0       0       0       0       0       0       0       0       0       0       
      +0       0       0       0       0
  5216 ;;Total ram usage:        0 bytes
  5217 ;; Hardware stack levels used: 1
  5218 ;; Hardware stack levels required when called: 3
  5219 ;; This function calls:
  5220 ;;		Nothing
  5221 ;; This function is called by:
  5222 ;;		_I2C2_M_Poll
  5223 ;; This function uses a non-reentrant model
  5224 ;;
  5225                           
  5226                           	psect	text34
  5227   001A1A                     __ptext34:
  5228                           	callstack 0
  5229   001A1A                     _I2C2_M_ClearErrors:
  5230                           	callstack 26
  5231   001A1A                     
  5232                           ;my_i2c_pic18.c: 219:     SSP1CON2bits.RCEN1 = 0;
  5233   001A1A  96C5               	bcf	197,3,c	;volatile
  5234                           
  5235                           ;my_i2c_pic18.c: 220:     SSP1CON1bits.WCOL1 = 0;
  5236   001A1C  9EC6               	bcf	198,7,c	;volatile
  5237                           
  5238                           ;my_i2c_pic18.c: 221:     PIR2bits.BCL1IF = 0;
  5239   001A1E  96A1               	bcf	161,3,c	;volatile
  5240   001A20  0012               	return		;funcret
  5241   001A22                     __end_of_I2C2_M_ClearErrors:
  5242                           	callstack 0
  5243                           
  5244 ;; *************** function _FsScape_set_index_crc_SRAM *****************
  5245 ;; Defined at:
  5246 ;;		line 157 in file "fsscape.c"
  5247 ;; Parameters:    Size  Location     Type
  5248 ;;  crc_value       4   27[COMRAM] unsigned long 
  5249 ;; Auto vars:     Size  Location     Type
  5250 ;;  _address        4   31[COMRAM] unsigned char [4]
  5251 ;; Return value:  Size  Location     Type
  5252 ;;                  2   27[COMRAM] int 
  5253 ;; Registers used:
  5254 ;;		wreg, fsr2l, fsr2h, status,2, status,0, cstack
  5255 ;; Tracked objects:
  5256 ;;		On entry : 0/0
  5257 ;;		On exit  : 0/0
  5258 ;;		Unchanged: 0/0
  5259 ;; Data sizes:     COMRAM   BANK0   BANK1   BANK2   BANK3   BANK4   BANK5   BANK6   BANK7   BANK8   BANK9  BANK10  BANK1
      +1  BANK12  BANK13  BANK14  BANK15
  5260 ;;      Params:         4       0       0       0       0       0       0       0       0       0       0       0       
      +0       0       0       0       0
  5261 ;;      Locals:         4       0       0       0       0       0       0       0       0       0       0       0       
      +0       0       0       0       0
  5262 ;;      Temps:          0       0       0       0       0       0       0       0       0       0       0       0       
      +0       0       0       0       0
  5263 ;;      Totals:         8       0       0       0       0       0       0       0       0       0       0       0       
      +0       0       0       0       0
  5264 ;;Total ram usage:        8 bytes
  5265 ;; Hardware stack levels used: 1
  5266 ;; Hardware stack levels required when called: 5
  5267 ;; This function calls:
  5268 ;;		_I2C_Mem_Write
  5269 ;; This function is called by:
  5270 ;;		_main
  5271 ;; This function uses a non-reentrant model
  5272 ;;
  5273                           
  5274                           	psect	text35
  5275   0016CE                     __ptext35:
  5276                           	callstack 0
  5277   0016CE                     _FsScape_set_index_crc_SRAM:
  5278                           	callstack 25
  5279   0016CE                     
  5280                           ;fsscape.c: 157: int16_t FsScape_set_index_crc_SRAM(uint32_t crc_value);fsscape.c: 158: 
      +                          {;fsscape.c: 159:     uint8_t _address[4];;fsscape.c: 161:     _address[0] = (uint8_t)(c
      +                          rc_value);
  5281   0016CE  C01C  F020         	movff	FsScape_set_index_crc_SRAM@crc_value,FsScape_set_index_crc_SRAM@_address
  5282                           
  5283                           ;fsscape.c: 162:     _address[1] = (uint8_t)(crc_value >> 8);
  5284   0016D2  C01D  F021         	movff	FsScape_set_index_crc_SRAM@crc_value+1,FsScape_set_index_crc_SRAM@_address+1
  5285                           
  5286                           ;fsscape.c: 163:     _address[2] = (uint8_t)(crc_value >> 16);
  5287   0016D6  C01E  F022         	movff	FsScape_set_index_crc_SRAM@crc_value+2,FsScape_set_index_crc_SRAM@_address+2
  5288                           
  5289                           ;fsscape.c: 164:     _address[3] = (uint8_t)(crc_value >> 24);
  5290   0016DA  C01F  F023         	movff	FsScape_set_index_crc_SRAM@crc_value+3,FsScape_set_index_crc_SRAM@_address+3
  5291   0016DE                     
  5292                           ;fsscape.c: 166:     return I2C_Mem_Write(0xDE, (0x20 + 4), 1, _address, 4, 0);;	Return 
      +                          value of _FsScape_set_index_crc_SRAM is never used
  5293   0016DE  0E00               	movlw	0
  5294   0016E0  6E0B               	movwf	(I2C_Mem_Write@MemAdress+1)^0,c
  5295   0016E2  0E24               	movlw	36
  5296   0016E4  6E0A               	movwf	I2C_Mem_Write@MemAdress^0,c
  5297   0016E6  0E00               	movlw	0
  5298   0016E8  6E0D               	movwf	(I2C_Mem_Write@MemAddSize+1)^0,c
  5299   0016EA  0E01               	movlw	1
  5300   0016EC  6E0C               	movwf	I2C_Mem_Write@MemAddSize^0,c
  5301   0016EE  0E20               	movlw	low FsScape_set_index_crc_SRAM@_address
  5302   0016F0  6E0E               	movwf	I2C_Mem_Write@pData^0,c
  5303   0016F2  0E00               	movlw	high FsScape_set_index_crc_SRAM@_address
  5304   0016F4  6E0F               	movwf	(I2C_Mem_Write@pData+1)^0,c
  5305   0016F6  0E00               	movlw	0
  5306   0016F8  6E11               	movwf	(I2C_Mem_Write@Size+1)^0,c
  5307   0016FA  0E04               	movlw	4
  5308   0016FC  6E10               	movwf	I2C_Mem_Write@Size^0,c
  5309   0016FE  0E00               	movlw	0
  5310   001700  6E12               	movwf	I2C_Mem_Write@Timeout^0,c
  5311   001702  0E00               	movlw	0
  5312   001704  6E13               	movwf	(I2C_Mem_Write@Timeout+1)^0,c
  5313   001706  0E00               	movlw	0
  5314   001708  6E14               	movwf	(I2C_Mem_Write@Timeout+2)^0,c
  5315   00170A  0E00               	movlw	0
  5316   00170C  6E15               	movwf	(I2C_Mem_Write@Timeout+3)^0,c
  5317   00170E  0EDE               	movlw	222
  5318   001710  EC96  F004         	call	_I2C_Mem_Write
  5319   001714  0012               	return		;funcret
  5320   001716                     __end_of_FsScape_set_index_crc_SRAM:
  5321                           	callstack 0
  5322                           
  5323 ;; *************** function _FsScape_set_index_SRAM *****************
  5324 ;; Defined at:
  5325 ;;		line 118 in file "fsscape.c"
  5326 ;; Parameters:    Size  Location     Type
  5327 ;;  address_valu    4   27[COMRAM] unsigned long 
  5328 ;; Auto vars:     Size  Location     Type
  5329 ;;  _address        4   31[COMRAM] unsigned char [4]
  5330 ;; Return value:  Size  Location     Type
  5331 ;;                  2   27[COMRAM] int 
  5332 ;; Registers used:
  5333 ;;		wreg, fsr2l, fsr2h, status,2, status,0, cstack
  5334 ;; Tracked objects:
  5335 ;;		On entry : 0/0
  5336 ;;		On exit  : 0/0
  5337 ;;		Unchanged: 0/0
  5338 ;; Data sizes:     COMRAM   BANK0   BANK1   BANK2   BANK3   BANK4   BANK5   BANK6   BANK7   BANK8   BANK9  BANK10  BANK1
      +1  BANK12  BANK13  BANK14  BANK15
  5339 ;;      Params:         4       0       0       0       0       0       0       0       0       0       0       0       
      +0       0       0       0       0
  5340 ;;      Locals:         4       0       0       0       0       0       0       0       0       0       0       0       
      +0       0       0       0       0
  5341 ;;      Temps:          0       0       0       0       0       0       0       0       0       0       0       0       
      +0       0       0       0       0
  5342 ;;      Totals:         8       0       0       0       0       0       0       0       0       0       0       0       
      +0       0       0       0       0
  5343 ;;Total ram usage:        8 bytes
  5344 ;; Hardware stack levels used: 1
  5345 ;; Hardware stack levels required when called: 5
  5346 ;; This function calls:
  5347 ;;		_I2C_Mem_Write
  5348 ;; This function is called by:
  5349 ;;		_main
  5350 ;; This function uses a non-reentrant model
  5351 ;;
  5352                           
  5353                           	psect	text36
  5354   001716                     __ptext36:
  5355                           	callstack 0
  5356   001716                     _FsScape_set_index_SRAM:
  5357                           	callstack 25
  5358   001716                     
  5359                           ;fsscape.c: 118: int16_t FsScape_set_index_SRAM(uint32_t address_value);fsscape.c: 119: 
      +                          {;fsscape.c: 120:     uint8_t _address[4];;fsscape.c: 122:     _address[0] = (uint8_t)(a
      +                          ddress_value);
  5360   001716  C01C  F020         	movff	FsScape_set_index_SRAM@address_value,FsScape_set_index_SRAM@_address
  5361                           
  5362                           ;fsscape.c: 123:     _address[1] = (uint8_t)(address_value >> 8);
  5363   00171A  C01D  F021         	movff	FsScape_set_index_SRAM@address_value+1,FsScape_set_index_SRAM@_address+1
  5364                           
  5365                           ;fsscape.c: 124:     _address[2] = (uint8_t)(address_value >> 16);
  5366   00171E  C01E  F022         	movff	FsScape_set_index_SRAM@address_value+2,FsScape_set_index_SRAM@_address+2
  5367                           
  5368                           ;fsscape.c: 125:     _address[3] = (uint8_t)(address_value >> 24);
  5369   001722  C01F  F023         	movff	FsScape_set_index_SRAM@address_value+3,FsScape_set_index_SRAM@_address+3
  5370   001726                     
  5371                           ;fsscape.c: 127:     return I2C_Mem_Write(0xDE, 0x20, 1, _address, 4, 0);;	Return value 
      +                          of _FsScape_set_index_SRAM is never used
  5372   001726  0E00               	movlw	0
  5373   001728  6E0B               	movwf	(I2C_Mem_Write@MemAdress+1)^0,c
  5374   00172A  0E20               	movlw	32
  5375   00172C  6E0A               	movwf	I2C_Mem_Write@MemAdress^0,c
  5376   00172E  0E00               	movlw	0
  5377   001730  6E0D               	movwf	(I2C_Mem_Write@MemAddSize+1)^0,c
  5378   001732  0E01               	movlw	1
  5379   001734  6E0C               	movwf	I2C_Mem_Write@MemAddSize^0,c
  5380   001736  0E20               	movlw	low FsScape_set_index_SRAM@_address
  5381   001738  6E0E               	movwf	I2C_Mem_Write@pData^0,c
  5382   00173A  0E00               	movlw	high FsScape_set_index_SRAM@_address
  5383   00173C  6E0F               	movwf	(I2C_Mem_Write@pData+1)^0,c
  5384   00173E  0E00               	movlw	0
  5385   001740  6E11               	movwf	(I2C_Mem_Write@Size+1)^0,c
  5386   001742  0E04               	movlw	4
  5387   001744  6E10               	movwf	I2C_Mem_Write@Size^0,c
  5388   001746  0E00               	movlw	0
  5389   001748  6E12               	movwf	I2C_Mem_Write@Timeout^0,c
  5390   00174A  0E00               	movlw	0
  5391   00174C  6E13               	movwf	(I2C_Mem_Write@Timeout+1)^0,c
  5392   00174E  0E00               	movlw	0
  5393   001750  6E14               	movwf	(I2C_Mem_Write@Timeout+2)^0,c
  5394   001752  0E00               	movlw	0
  5395   001754  6E15               	movwf	(I2C_Mem_Write@Timeout+3)^0,c
  5396   001756  0EDE               	movlw	222
  5397   001758  EC96  F004         	call	_I2C_Mem_Write
  5398   00175C  0012               	return		;funcret
  5399   00175E                     __end_of_FsScape_set_index_SRAM:
  5400                           	callstack 0
  5401                           
  5402 ;; *************** function _I2C_Mem_Write *****************
  5403 ;; Defined at:
  5404 ;;		line 866 in file "my_i2c_pic18.c"
  5405 ;; Parameters:    Size  Location     Type
  5406 ;;  DevAddress      1    wreg     unsigned char 
  5407 ;;  MemAdress       2    9[COMRAM] unsigned short 
  5408 ;;  MemAddSize      2   11[COMRAM] unsigned short 
  5409 ;;  pData           2   13[COMRAM] PTR unsigned char 
  5410 ;;		 -> FsScape_set_index_crc_SRAM@_address(4), FsScape_set_index_SRAM@_address(4), 
  5411 ;;  Size            2   15[COMRAM] unsigned short 
  5412 ;;  Timeout         4   17[COMRAM] unsigned long 
  5413 ;; Auto vars:     Size  Location     Type
  5414 ;;  DevAddress      1   21[COMRAM] unsigned char 
  5415 ;;  i               2   25[COMRAM] short 
  5416 ;;  retval          2   23[COMRAM] short 
  5417 ;;  SlaveAddr       1   22[COMRAM] unsigned char 
  5418 ;; Return value:  Size  Location     Type
  5419 ;;                  2    9[COMRAM] short 
  5420 ;; Registers used:
  5421 ;;		wreg, fsr2l, fsr2h, status,2, status,0, cstack
  5422 ;; Tracked objects:
  5423 ;;		On entry : 0/0
  5424 ;;		On exit  : 0/0
  5425 ;;		Unchanged: 0/0
  5426 ;; Data sizes:     COMRAM   BANK0   BANK1   BANK2   BANK3   BANK4   BANK5   BANK6   BANK7   BANK8   BANK9  BANK10  BANK1
      +1  BANK12  BANK13  BANK14  BANK15
  5427 ;;      Params:        12       0       0       0       0       0       0       0       0       0       0       0       
      +0       0       0       0       0
  5428 ;;      Locals:         6       0       0       0       0       0       0       0       0       0       0       0       
      +0       0       0       0       0
  5429 ;;      Temps:          0       0       0       0       0       0       0       0       0       0       0       0       
      +0       0       0       0       0
  5430 ;;      Totals:        18       0       0       0       0       0       0       0       0       0       0       0       
      +0       0       0       0       0
  5431 ;;Total ram usage:       18 bytes
  5432 ;; Hardware stack levels used: 1
  5433 ;; Hardware stack levels required when called: 4
  5434 ;; This function calls:
  5435 ;;		_I2C2_M_Start
  5436 ;;		_I2C2_M_Stop
  5437 ;;		_I2C2_M_WriteByte
  5438 ;; This function is called by:
  5439 ;;		_FsScape_set_index_SRAM
  5440 ;;		_FsScape_set_index_crc_SRAM
  5441 ;; This function uses a non-reentrant model
  5442 ;;
  5443                           
  5444                           	psect	text37
  5445   00092C                     __ptext37:
  5446                           	callstack 0
  5447   00092C                     _I2C_Mem_Write:
  5448                           	callstack 25
  5449                           
  5450                           ;incstack = 0
  5451                           ;I2C_Mem_Write@DevAddress stored from wreg
  5452   00092C  6E16               	movwf	I2C_Mem_Write@DevAddress^0,c
  5453   00092E                     
  5454                           ;my_i2c_pic18.c: 866: int16_t I2C_Mem_Write(uint8_t DevAddress, uint16_t MemAdress, uint
      +                          16_t MemAddSize, uint8_t *pData, uint16_t Size, uint32_t Timeout);my_i2c_pic18.c: 867: {
      +                          ;my_i2c_pic18.c: 869:     int16_t i;;my_i2c_pic18.c: 870:     int16_t retval;;my_i2c_pic
      +                          18.c: 871:     uint8_t SlaveAddr;;my_i2c_pic18.c: 873:     if((I2Cflags & 0x0001))
  5455   00092E  A057               	btfss	_I2Cflags^0,0,c
  5456   000930  EF9C  F004         	goto	u5061
  5457   000934  EF9E  F004         	goto	u5060
  5458   000938                     u5061:
  5459   000938  EFA4  F004         	goto	l7342
  5460   00093C                     u5060:
  5461   00093C                     
  5462                           ;my_i2c_pic18.c: 874:         return -100;
  5463   00093C  0EFF               	movlw	255
  5464   00093E  6E0B               	movwf	(?_I2C_Mem_Write+1)^0,c
  5465   000940  0E9C               	movlw	156
  5466   000942  6E0A               	movwf	?_I2C_Mem_Write^0,c
  5467   000944  EF32  F005         	goto	l1232
  5468   000948                     l7342:
  5469                           
  5470                           ;my_i2c_pic18.c: 876:     if(I2C2_M_Start() != 0)
  5471   000948  ECEC  F009         	call	_I2C2_M_Start	;wreg free
  5472   00094C  5005               	movf	?_I2C2_M_Start^0,w,c
  5473   00094E  1006               	iorwf	(?_I2C2_M_Start+1)^0,w,c
  5474   000950  B4D8               	btfsc	status,2,c
  5475   000952  EFAD  F004         	goto	u5071
  5476   000956  EFAF  F004         	goto	u5070
  5477   00095A                     u5071:
  5478   00095A  EFB6  F004         	goto	l1233
  5479   00095E                     u5070:
  5480   00095E                     l7344:
  5481                           
  5482                           ;my_i2c_pic18.c: 877:     {;my_i2c_pic18.c: 878:         I2Cflags |= 0x0001;
  5483   00095E  8057               	bsf	_I2Cflags^0,0,c
  5484   000960                     
  5485                           ;my_i2c_pic18.c: 879:         return -102;
  5486   000960  0EFF               	movlw	255
  5487   000962  6E0B               	movwf	(?_I2C_Mem_Write+1)^0,c
  5488   000964  0E9A               	movlw	154
  5489   000966  6E0A               	movwf	?_I2C_Mem_Write^0,c
  5490   000968  EF32  F005         	goto	l1232
  5491   00096C                     l1233:
  5492                           
  5493                           ;my_i2c_pic18.c: 882:     SlaveAddr = DevAddress | 0;
  5494   00096C  C016  F017         	movff	I2C_Mem_Write@DevAddress,I2C_Mem_Write@SlaveAddr
  5495   000970                     
  5496                           ;my_i2c_pic18.c: 883:     retval = I2C2_M_WriteByte((char) SlaveAddr);
  5497   000970  5017               	movf	I2C_Mem_Write@SlaveAddr^0,w,c
  5498   000972  EC47  F009         	call	_I2C2_M_WriteByte
  5499   000976  C005  F018         	movff	?_I2C2_M_WriteByte,I2C_Mem_Write@retval
  5500   00097A  C006  F019         	movff	?_I2C2_M_WriteByte+1,I2C_Mem_Write@retval+1
  5501   00097E                     
  5502                           ;my_i2c_pic18.c: 884:     if(retval == -6)
  5503   00097E  0EFA               	movlw	250
  5504   000980  1818               	xorwf	I2C_Mem_Write@retval^0,w,c
  5505   000982  E106               	bnz	u5081
  5506   000984  2819               	incf	(I2C_Mem_Write@retval+1)^0,w,c
  5507   000986  A4D8               	btfss	status,2,c
  5508   000988  EFC8  F004         	goto	u5081
  5509   00098C  EFCA  F004         	goto	u5080
  5510   000990                     u5081:
  5511   000990  EFD3  F004         	goto	l7364
  5512   000994                     u5080:
  5513   000994                     
  5514                           ;my_i2c_pic18.c: 885:     {;my_i2c_pic18.c: 886:         I2C2_M_Stop();
  5515   000994  EC7B  F00A         	call	_I2C2_M_Stop	;wreg free
  5516   000998                     
  5517                           ;my_i2c_pic18.c: 887:         I2Cflags |= 0x0001;
  5518   000998  8057               	bsf	_I2Cflags^0,0,c
  5519   00099A                     
  5520                           ;my_i2c_pic18.c: 888:         return -103;
  5521   00099A  0EFF               	movlw	255
  5522   00099C  6E0B               	movwf	(?_I2C_Mem_Write+1)^0,c
  5523   00099E  0E99               	movlw	153
  5524   0009A0  6E0A               	movwf	?_I2C_Mem_Write^0,c
  5525   0009A2  EF32  F005         	goto	l1232
  5526   0009A6                     l7364:
  5527   0009A6  BE19               	btfsc	(I2C_Mem_Write@retval+1)^0,7,c
  5528   0009A8  EFDA  F004         	goto	u5090
  5529   0009AC  EFD8  F004         	goto	u5091
  5530   0009B0                     u5091:
  5531   0009B0  EFDE  F004         	goto	l7374
  5532   0009B4                     u5090:
  5533   0009B4                     l7366:
  5534                           
  5535                           ;my_i2c_pic18.c: 890:     {;my_i2c_pic18.c: 891:         I2C2_M_Stop();
  5536   0009B4  EC7B  F00A         	call	_I2C2_M_Stop	;wreg free
  5537   0009B8  EFAF  F004         	goto	l7344
  5538   0009BC                     l7374:
  5539                           
  5540                           ;my_i2c_pic18.c: 896:     if(I2C2_M_WriteByte((char) ((MemAdress) >> 8)) != 0)
  5541   0009BC  500B               	movf	(I2C_Mem_Write@MemAdress+1)^0,w,c
  5542   0009BE  EC47  F009         	call	_I2C2_M_WriteByte
  5543   0009C2  5005               	movf	?_I2C2_M_WriteByte^0,w,c
  5544   0009C4  1006               	iorwf	(?_I2C2_M_WriteByte+1)^0,w,c
  5545   0009C6  B4D8               	btfsc	status,2,c
  5546   0009C8  EFE8  F004         	goto	u5101
  5547   0009CC  EFEA  F004         	goto	u5100
  5548   0009D0                     u5101:
  5549   0009D0  EFEC  F004         	goto	l7384
  5550   0009D4                     u5100:
  5551   0009D4  EFDA  F004         	goto	l7366
  5552   0009D8                     l7384:
  5553                           
  5554                           ;my_i2c_pic18.c: 902:     if(I2C2_M_WriteByte((char) ((MemAdress) & 0xff)) != 0)
  5555   0009D8  500A               	movf	I2C_Mem_Write@MemAdress^0,w,c
  5556   0009DA  EC47  F009         	call	_I2C2_M_WriteByte
  5557   0009DE  5005               	movf	?_I2C2_M_WriteByte^0,w,c
  5558   0009E0  1006               	iorwf	(?_I2C2_M_WriteByte+1)^0,w,c
  5559   0009E2  B4D8               	btfsc	status,2,c
  5560   0009E4  EFF6  F004         	goto	u5111
  5561   0009E8  EFF8  F004         	goto	u5110
  5562   0009EC                     u5111:
  5563   0009EC  EFFA  F004         	goto	l7394
  5564   0009F0                     u5110:
  5565   0009F0  EFDA  F004         	goto	l7366
  5566   0009F4                     l7394:
  5567                           
  5568                           ;my_i2c_pic18.c: 909:     for(i = 0; i < Size; i++)
  5569   0009F4  0E00               	movlw	0
  5570   0009F6  6E1B               	movwf	(I2C_Mem_Write@i+1)^0,c
  5571   0009F8  0E00               	movlw	0
  5572   0009FA  6E1A               	movwf	I2C_Mem_Write@i^0,c
  5573   0009FC  EF16  F005         	goto	l7408
  5574   000A00                     l7396:
  5575                           
  5576                           ;my_i2c_pic18.c: 910:     {;my_i2c_pic18.c: 911:         if(I2C2_M_WriteByte(pData[i]) !
      +                          = 0)
  5577   000A00  501A               	movf	I2C_Mem_Write@i^0,w,c
  5578   000A02  240E               	addwf	I2C_Mem_Write@pData^0,w,c
  5579   000A04  6ED9               	movwf	fsr2l,c
  5580   000A06  501B               	movf	(I2C_Mem_Write@i+1)^0,w,c
  5581   000A08  200F               	addwfc	(I2C_Mem_Write@pData+1)^0,w,c
  5582   000A0A  6EDA               	movwf	fsr2h,c
  5583   000A0C  50DF               	movf	indf2,w,c
  5584   000A0E  EC47  F009         	call	_I2C2_M_WriteByte
  5585   000A12  5005               	movf	?_I2C2_M_WriteByte^0,w,c
  5586   000A14  1006               	iorwf	(?_I2C2_M_WriteByte+1)^0,w,c
  5587   000A16  B4D8               	btfsc	status,2,c
  5588   000A18  EF10  F005         	goto	u5121
  5589   000A1C  EF12  F005         	goto	u5120
  5590   000A20                     u5121:
  5591   000A20  EF14  F005         	goto	l7406
  5592   000A24                     u5120:
  5593   000A24  EFDA  F004         	goto	l7366
  5594   000A28                     l7406:
  5595                           
  5596                           ;my_i2c_pic18.c: 917:     }
  5597   000A28  4A1A               	infsnz	I2C_Mem_Write@i^0,f,c
  5598   000A2A  2A1B               	incf	(I2C_Mem_Write@i+1)^0,f,c
  5599   000A2C                     l7408:
  5600   000A2C  5010               	movf	I2C_Mem_Write@Size^0,w,c
  5601   000A2E  5C1A               	subwf	I2C_Mem_Write@i^0,w,c
  5602   000A30  5011               	movf	(I2C_Mem_Write@Size+1)^0,w,c
  5603   000A32  581B               	subwfb	(I2C_Mem_Write@i+1)^0,w,c
  5604   000A34  A0D8               	btfss	status,0,c
  5605   000A36  EF1F  F005         	goto	u5131
  5606   000A3A  EF21  F005         	goto	u5130
  5607   000A3E                     u5131:
  5608   000A3E  EF00  F005         	goto	l7396
  5609   000A42                     u5130:
  5610   000A42                     
  5611                           ;my_i2c_pic18.c: 919:     if(I2C2_M_Stop() != 0)
  5612   000A42  EC7B  F00A         	call	_I2C2_M_Stop	;wreg free
  5613   000A46  5005               	movf	?_I2C2_M_Stop^0,w,c
  5614   000A48  1006               	iorwf	(?_I2C2_M_Stop+1)^0,w,c
  5615   000A4A  B4D8               	btfsc	status,2,c
  5616   000A4C  EF2A  F005         	goto	u5141
  5617   000A50  EF2C  F005         	goto	u5140
  5618   000A54                     u5141:
  5619   000A54  EF2E  F005         	goto	l7418
  5620   000A58                     u5140:
  5621   000A58  EFAF  F004         	goto	l7344
  5622   000A5C                     l7418:
  5623                           
  5624                           ;my_i2c_pic18.c: 924:     return 0;
  5625   000A5C  0E00               	movlw	0
  5626   000A5E  6E0B               	movwf	(?_I2C_Mem_Write+1)^0,c
  5627   000A60  0E00               	movlw	0
  5628   000A62  6E0A               	movwf	?_I2C_Mem_Write^0,c
  5629   000A64                     l1232:
  5630   000A64  0012               	return		;funcret
  5631   000A66                     __end_of_I2C_Mem_Write:
  5632                           	callstack 0
  5633                           
  5634 ;; *************** function _FsScape_get_index_crc_SRAM *****************
  5635 ;; Defined at:
  5636 ;;		line 140 in file "fsscape.c"
  5637 ;; Parameters:    Size  Location     Type
  5638 ;;  crc             2   29[COMRAM] PTR unsigned long 
  5639 ;;		 -> main@check2(4), 
  5640 ;; Auto vars:     Size  Location     Type
  5641 ;;  _address        4   55[COMRAM] unsigned char [4]
  5642 ;;  value           2   59[COMRAM] short 
  5643 ;;  data            2    0        PTR volatile unsigned lo
  5644 ;;		 -> main@check2(4), 
  5645 ;; Return value:  Size  Location     Type
  5646 ;;                  2   29[COMRAM] int 
  5647 ;; Registers used:
  5648 ;;		wreg, fsr2l, fsr2h, status,2, status,0, cstack
  5649 ;; Tracked objects:
  5650 ;;		On entry : 0/0
  5651 ;;		On exit  : 0/0
  5652 ;;		Unchanged: 0/0
  5653 ;; Data sizes:     COMRAM   BANK0   BANK1   BANK2   BANK3   BANK4   BANK5   BANK6   BANK7   BANK8   BANK9  BANK10  BANK1
      +1  BANK12  BANK13  BANK14  BANK15
  5654 ;;      Params:         2       0       0       0       0       0       0       0       0       0       0       0       
      +0       0       0       0       0
  5655 ;;      Locals:         6       0       0       0       0       0       0       0       0       0       0       0       
      +0       0       0       0       0
  5656 ;;      Temps:         24       0       0       0       0       0       0       0       0       0       0       0       
      +0       0       0       0       0
  5657 ;;      Totals:        32       0       0       0       0       0       0       0       0       0       0       0       
      +0       0       0       0       0
  5658 ;;Total ram usage:       32 bytes
  5659 ;; Hardware stack levels used: 1
  5660 ;; Hardware stack levels required when called: 5
  5661 ;; This function calls:
  5662 ;;		_I2C_Mem_Read
  5663 ;; This function is called by:
  5664 ;;		_main
  5665 ;; This function uses a non-reentrant model
  5666 ;;
  5667                           
  5668                           	psect	text38
  5669   000CAA                     __ptext38:
  5670                           	callstack 0
  5671   000CAA                     _FsScape_get_index_crc_SRAM:
  5672                           	callstack 25
  5673   000CAA                     
  5674                           ;fsscape.c: 144:     uint8_t _address[4];;fsscape.c: 146:     value = I2C_Mem_Read(0xDE,
      +                           (0x20 + 4), 1, _address, 4, 0);
  5675   000CAA  0E00               	movlw	0
  5676   000CAC  6E0B               	movwf	(I2C_Mem_Read@MemAdress+1)^0,c
  5677   000CAE  0E24               	movlw	36
  5678   000CB0  6E0A               	movwf	I2C_Mem_Read@MemAdress^0,c
  5679   000CB2  0E00               	movlw	0
  5680   000CB4  6E0D               	movwf	(I2C_Mem_Read@MemAddSize+1)^0,c
  5681   000CB6  0E01               	movlw	1
  5682   000CB8  6E0C               	movwf	I2C_Mem_Read@MemAddSize^0,c
  5683   000CBA  0E38               	movlw	low FsScape_get_index_crc_SRAM@_address
  5684   000CBC  6E0E               	movwf	I2C_Mem_Read@pData^0,c
  5685   000CBE  0E00               	movlw	high FsScape_get_index_crc_SRAM@_address
  5686   000CC0  6E0F               	movwf	(I2C_Mem_Read@pData+1)^0,c
  5687   000CC2  0E00               	movlw	0
  5688   000CC4  6E11               	movwf	(I2C_Mem_Read@Size+1)^0,c
  5689   000CC6  0E04               	movlw	4
  5690   000CC8  6E10               	movwf	I2C_Mem_Read@Size^0,c
  5691   000CCA  0E00               	movlw	0
  5692   000CCC  6E12               	movwf	I2C_Mem_Read@Timeout^0,c
  5693   000CCE  0E00               	movlw	0
  5694   000CD0  6E13               	movwf	(I2C_Mem_Read@Timeout+1)^0,c
  5695   000CD2  0E00               	movlw	0
  5696   000CD4  6E14               	movwf	(I2C_Mem_Read@Timeout+2)^0,c
  5697   000CD6  0E00               	movlw	0
  5698   000CD8  6E15               	movwf	(I2C_Mem_Read@Timeout+3)^0,c
  5699   000CDA  0EDE               	movlw	222
  5700   000CDC  ECBF  F003         	call	_I2C_Mem_Read
  5701   000CE0  C00A  F03C         	movff	?_I2C_Mem_Read,FsScape_get_index_crc_SRAM@value
  5702   000CE4  C00B  F03D         	movff	?_I2C_Mem_Read+1,FsScape_get_index_crc_SRAM@value+1
  5703   000CE8                     
  5704                           ;fsscape.c: 148:     if(value == 0)
  5705   000CE8  503C               	movf	FsScape_get_index_crc_SRAM@value^0,w,c
  5706   000CEA  103D               	iorwf	(FsScape_get_index_crc_SRAM@value+1)^0,w,c
  5707   000CEC  A4D8               	btfss	status,2,c
  5708   000CEE  EF7B  F006         	goto	u5391
  5709   000CF2  EF7D  F006         	goto	u5390
  5710   000CF6                     u5391:
  5711   000CF6  EFCB  F006         	goto	l1298
  5712   000CFA                     u5390:
  5713   000CFA                     
  5714                           ;fsscape.c: 149:     {;fsscape.c: 151:         *crc = ((uint32_t)_address[3] << 24) | ((
      +                          uint32_t)_address[2] << 16) | ((uint32_t)_address[1] << 8) | _address[0];
  5715   000CFA  C039  F020         	movff	FsScape_get_index_crc_SRAM@_address+1,??_FsScape_get_index_crc_SRAM
  5716   000CFE  6A21               	clrf	(??_FsScape_get_index_crc_SRAM+1)^0,c
  5717   000D00  6A22               	clrf	(??_FsScape_get_index_crc_SRAM+2)^0,c
  5718   000D02  6A23               	clrf	(??_FsScape_get_index_crc_SRAM+3)^0,c
  5719   000D04  C022  F023         	movff	??_FsScape_get_index_crc_SRAM+2,??_FsScape_get_index_crc_SRAM+3
  5720   000D08  C021  F022         	movff	??_FsScape_get_index_crc_SRAM+1,??_FsScape_get_index_crc_SRAM+2
  5721   000D0C  C020  F021         	movff	??_FsScape_get_index_crc_SRAM,??_FsScape_get_index_crc_SRAM+1
  5722   000D10  6A20               	clrf	??_FsScape_get_index_crc_SRAM^0,c
  5723   000D12  C03A  F024         	movff	FsScape_get_index_crc_SRAM@_address+2,??_FsScape_get_index_crc_SRAM+4
  5724   000D16  6A25               	clrf	(??_FsScape_get_index_crc_SRAM+5)^0,c
  5725   000D18  6A26               	clrf	(??_FsScape_get_index_crc_SRAM+6)^0,c
  5726   000D1A  6A27               	clrf	(??_FsScape_get_index_crc_SRAM+7)^0,c
  5727   000D1C  C025  F027         	movff	??_FsScape_get_index_crc_SRAM+5,??_FsScape_get_index_crc_SRAM+7
  5728   000D20  C024  F026         	movff	??_FsScape_get_index_crc_SRAM+4,??_FsScape_get_index_crc_SRAM+6
  5729   000D24  6A25               	clrf	(??_FsScape_get_index_crc_SRAM+5)^0,c
  5730   000D26  6A24               	clrf	(??_FsScape_get_index_crc_SRAM+4)^0,c
  5731   000D28  C03B  F028         	movff	FsScape_get_index_crc_SRAM@_address+3,??_FsScape_get_index_crc_SRAM+8
  5732   000D2C  6A29               	clrf	(??_FsScape_get_index_crc_SRAM+9)^0,c
  5733   000D2E  6A2A               	clrf	(??_FsScape_get_index_crc_SRAM+10)^0,c
  5734   000D30  6A2B               	clrf	(??_FsScape_get_index_crc_SRAM+11)^0,c
  5735   000D32  C028  F02B         	movff	??_FsScape_get_index_crc_SRAM+8,??_FsScape_get_index_crc_SRAM+11
  5736   000D36  6A2A               	clrf	(??_FsScape_get_index_crc_SRAM+10)^0,c
  5737   000D38  6A29               	clrf	(??_FsScape_get_index_crc_SRAM+9)^0,c
  5738   000D3A  6A28               	clrf	(??_FsScape_get_index_crc_SRAM+8)^0,c
  5739   000D3C  5024               	movf	(??_FsScape_get_index_crc_SRAM+4)^0,w,c
  5740   000D3E  1028               	iorwf	(??_FsScape_get_index_crc_SRAM+8)^0,w,c
  5741   000D40  6E2C               	movwf	(??_FsScape_get_index_crc_SRAM+12)^0,c
  5742   000D42  5025               	movf	(??_FsScape_get_index_crc_SRAM+5)^0,w,c
  5743   000D44  1029               	iorwf	(??_FsScape_get_index_crc_SRAM+9)^0,w,c
  5744   000D46  6E2D               	movwf	(??_FsScape_get_index_crc_SRAM+13)^0,c
  5745   000D48  5026               	movf	(??_FsScape_get_index_crc_SRAM+6)^0,w,c
  5746   000D4A  102A               	iorwf	(??_FsScape_get_index_crc_SRAM+10)^0,w,c
  5747   000D4C  6E2E               	movwf	(??_FsScape_get_index_crc_SRAM+14)^0,c
  5748   000D4E  5027               	movf	(??_FsScape_get_index_crc_SRAM+7)^0,w,c
  5749   000D50  102B               	iorwf	(??_FsScape_get_index_crc_SRAM+11)^0,w,c
  5750   000D52  6E2F               	movwf	(??_FsScape_get_index_crc_SRAM+15)^0,c
  5751   000D54  5020               	movf	??_FsScape_get_index_crc_SRAM^0,w,c
  5752   000D56  102C               	iorwf	(??_FsScape_get_index_crc_SRAM+12)^0,w,c
  5753   000D58  6E30               	movwf	(??_FsScape_get_index_crc_SRAM+16)^0,c
  5754   000D5A  5021               	movf	(??_FsScape_get_index_crc_SRAM+1)^0,w,c
  5755   000D5C  102D               	iorwf	(??_FsScape_get_index_crc_SRAM+13)^0,w,c
  5756   000D5E  6E31               	movwf	(??_FsScape_get_index_crc_SRAM+17)^0,c
  5757   000D60  5022               	movf	(??_FsScape_get_index_crc_SRAM+2)^0,w,c
  5758   000D62  102E               	iorwf	(??_FsScape_get_index_crc_SRAM+14)^0,w,c
  5759   000D64  6E32               	movwf	(??_FsScape_get_index_crc_SRAM+18)^0,c
  5760   000D66  5023               	movf	(??_FsScape_get_index_crc_SRAM+3)^0,w,c
  5761   000D68  102F               	iorwf	(??_FsScape_get_index_crc_SRAM+15)^0,w,c
  5762   000D6A  6E33               	movwf	(??_FsScape_get_index_crc_SRAM+19)^0,c
  5763   000D6C  5038               	movf	FsScape_get_index_crc_SRAM@_address^0,w,c
  5764   000D6E  1030               	iorwf	(??_FsScape_get_index_crc_SRAM+16)^0,w,c
  5765   000D70  6E34               	movwf	(??_FsScape_get_index_crc_SRAM+20)^0,c
  5766   000D72  5031               	movf	(??_FsScape_get_index_crc_SRAM+17)^0,w,c
  5767   000D74  6E35               	movwf	(??_FsScape_get_index_crc_SRAM+21)^0,c
  5768   000D76  5032               	movf	(??_FsScape_get_index_crc_SRAM+18)^0,w,c
  5769   000D78  6E36               	movwf	(??_FsScape_get_index_crc_SRAM+22)^0,c
  5770   000D7A  5033               	movf	(??_FsScape_get_index_crc_SRAM+19)^0,w,c
  5771   000D7C  6E37               	movwf	(??_FsScape_get_index_crc_SRAM+23)^0,c
  5772   000D7E  C01E  FFD9         	movff	FsScape_get_index_crc_SRAM@crc,fsr2l
  5773   000D82  C01F  FFDA         	movff	FsScape_get_index_crc_SRAM@crc+1,fsr2h
  5774   000D86  C034  FFDE         	movff	??_FsScape_get_index_crc_SRAM+20,postinc2
  5775   000D8A  C035  FFDE         	movff	??_FsScape_get_index_crc_SRAM+21,postinc2
  5776   000D8E  C036  FFDE         	movff	??_FsScape_get_index_crc_SRAM+22,postinc2
  5777   000D92  C037  FFDE         	movff	??_FsScape_get_index_crc_SRAM+23,postinc2
  5778   000D96                     l1298:
  5779   000D96  0012               	return		;funcret
  5780   000D98                     __end_of_FsScape_get_index_crc_SRAM:
  5781                           	callstack 0
  5782                           
  5783 ;; *************** function _FsScape_get_index_SRAM *****************
  5784 ;; Defined at:
  5785 ;;		line 101 in file "fsscape.c"
  5786 ;; Parameters:    Size  Location     Type
  5787 ;;  address         2   29[COMRAM] PTR unsigned long 
  5788 ;;		 -> main@adressme2(4), main@adressme(4), 
  5789 ;; Auto vars:     Size  Location     Type
  5790 ;;  _address        4   55[COMRAM] unsigned char [4]
  5791 ;;  value           2   59[COMRAM] short 
  5792 ;;  data            2    0        PTR volatile unsigned lo
  5793 ;;		 -> main@adressme2(4), main@adressme(4), 
  5794 ;; Return value:  Size  Location     Type
  5795 ;;                  2   29[COMRAM] int 
  5796 ;; Registers used:
  5797 ;;		wreg, fsr2l, fsr2h, status,2, status,0, cstack
  5798 ;; Tracked objects:
  5799 ;;		On entry : 0/0
  5800 ;;		On exit  : 0/0
  5801 ;;		Unchanged: 0/0
  5802 ;; Data sizes:     COMRAM   BANK0   BANK1   BANK2   BANK3   BANK4   BANK5   BANK6   BANK7   BANK8   BANK9  BANK10  BANK1
      +1  BANK12  BANK13  BANK14  BANK15
  5803 ;;      Params:         2       0       0       0       0       0       0       0       0       0       0       0       
      +0       0       0       0       0
  5804 ;;      Locals:         6       0       0       0       0       0       0       0       0       0       0       0       
      +0       0       0       0       0
  5805 ;;      Temps:         24       0       0       0       0       0       0       0       0       0       0       0       
      +0       0       0       0       0
  5806 ;;      Totals:        32       0       0       0       0       0       0       0       0       0       0       0       
      +0       0       0       0       0
  5807 ;;Total ram usage:       32 bytes
  5808 ;; Hardware stack levels used: 1
  5809 ;; Hardware stack levels required when called: 5
  5810 ;; This function calls:
  5811 ;;		_I2C_Mem_Read
  5812 ;; This function is called by:
  5813 ;;		_main
  5814 ;; This function uses a non-reentrant model
  5815 ;;
  5816                           
  5817                           	psect	text39
  5818   000D98                     __ptext39:
  5819                           	callstack 0
  5820   000D98                     _FsScape_get_index_SRAM:
  5821                           	callstack 25
  5822   000D98                     
  5823                           ;fsscape.c: 105:     uint8_t _address[4];;fsscape.c: 107:     value = I2C_Mem_Read(0xDE,
      +                           0x20, 1, _address, 4, 0);
  5824   000D98  0E00               	movlw	0
  5825   000D9A  6E0B               	movwf	(I2C_Mem_Read@MemAdress+1)^0,c
  5826   000D9C  0E20               	movlw	32
  5827   000D9E  6E0A               	movwf	I2C_Mem_Read@MemAdress^0,c
  5828   000DA0  0E00               	movlw	0
  5829   000DA2  6E0D               	movwf	(I2C_Mem_Read@MemAddSize+1)^0,c
  5830   000DA4  0E01               	movlw	1
  5831   000DA6  6E0C               	movwf	I2C_Mem_Read@MemAddSize^0,c
  5832   000DA8  0E38               	movlw	low FsScape_get_index_SRAM@_address
  5833   000DAA  6E0E               	movwf	I2C_Mem_Read@pData^0,c
  5834   000DAC  0E00               	movlw	high FsScape_get_index_SRAM@_address
  5835   000DAE  6E0F               	movwf	(I2C_Mem_Read@pData+1)^0,c
  5836   000DB0  0E00               	movlw	0
  5837   000DB2  6E11               	movwf	(I2C_Mem_Read@Size+1)^0,c
  5838   000DB4  0E04               	movlw	4
  5839   000DB6  6E10               	movwf	I2C_Mem_Read@Size^0,c
  5840   000DB8  0E00               	movlw	0
  5841   000DBA  6E12               	movwf	I2C_Mem_Read@Timeout^0,c
  5842   000DBC  0E00               	movlw	0
  5843   000DBE  6E13               	movwf	(I2C_Mem_Read@Timeout+1)^0,c
  5844   000DC0  0E00               	movlw	0
  5845   000DC2  6E14               	movwf	(I2C_Mem_Read@Timeout+2)^0,c
  5846   000DC4  0E00               	movlw	0
  5847   000DC6  6E15               	movwf	(I2C_Mem_Read@Timeout+3)^0,c
  5848   000DC8  0EDE               	movlw	222
  5849   000DCA  ECBF  F003         	call	_I2C_Mem_Read
  5850   000DCE  C00A  F03C         	movff	?_I2C_Mem_Read,FsScape_get_index_SRAM@value
  5851   000DD2  C00B  F03D         	movff	?_I2C_Mem_Read+1,FsScape_get_index_SRAM@value+1
  5852   000DD6                     
  5853                           ;fsscape.c: 109:     if(value == 0)
  5854   000DD6  503C               	movf	FsScape_get_index_SRAM@value^0,w,c
  5855   000DD8  103D               	iorwf	(FsScape_get_index_SRAM@value+1)^0,w,c
  5856   000DDA  A4D8               	btfss	status,2,c
  5857   000DDC  EFF2  F006         	goto	u5381
  5858   000DE0  EFF4  F006         	goto	u5380
  5859   000DE4                     u5381:
  5860   000DE4  EF42  F007         	goto	l1285
  5861   000DE8                     u5380:
  5862   000DE8                     
  5863                           ;fsscape.c: 110:     {;fsscape.c: 112:         *address = ((uint32_t)_address[3] << 24) 
      +                          | ((uint32_t)_address[2] << 16) | ((uint32_t)_address[1] << 8) | _address[0];
  5864   000DE8  C039  F020         	movff	FsScape_get_index_SRAM@_address+1,??_FsScape_get_index_SRAM
  5865   000DEC  6A21               	clrf	(??_FsScape_get_index_SRAM+1)^0,c
  5866   000DEE  6A22               	clrf	(??_FsScape_get_index_SRAM+2)^0,c
  5867   000DF0  6A23               	clrf	(??_FsScape_get_index_SRAM+3)^0,c
  5868   000DF2  C022  F023         	movff	??_FsScape_get_index_SRAM+2,??_FsScape_get_index_SRAM+3
  5869   000DF6  C021  F022         	movff	??_FsScape_get_index_SRAM+1,??_FsScape_get_index_SRAM+2
  5870   000DFA  C020  F021         	movff	??_FsScape_get_index_SRAM,??_FsScape_get_index_SRAM+1
  5871   000DFE  6A20               	clrf	??_FsScape_get_index_SRAM^0,c
  5872   000E00  C03A  F024         	movff	FsScape_get_index_SRAM@_address+2,??_FsScape_get_index_SRAM+4
  5873   000E04  6A25               	clrf	(??_FsScape_get_index_SRAM+5)^0,c
  5874   000E06  6A26               	clrf	(??_FsScape_get_index_SRAM+6)^0,c
  5875   000E08  6A27               	clrf	(??_FsScape_get_index_SRAM+7)^0,c
  5876   000E0A  C025  F027         	movff	??_FsScape_get_index_SRAM+5,??_FsScape_get_index_SRAM+7
  5877   000E0E  C024  F026         	movff	??_FsScape_get_index_SRAM+4,??_FsScape_get_index_SRAM+6
  5878   000E12  6A25               	clrf	(??_FsScape_get_index_SRAM+5)^0,c
  5879   000E14  6A24               	clrf	(??_FsScape_get_index_SRAM+4)^0,c
  5880   000E16  C03B  F028         	movff	FsScape_get_index_SRAM@_address+3,??_FsScape_get_index_SRAM+8
  5881   000E1A  6A29               	clrf	(??_FsScape_get_index_SRAM+9)^0,c
  5882   000E1C  6A2A               	clrf	(??_FsScape_get_index_SRAM+10)^0,c
  5883   000E1E  6A2B               	clrf	(??_FsScape_get_index_SRAM+11)^0,c
  5884   000E20  C028  F02B         	movff	??_FsScape_get_index_SRAM+8,??_FsScape_get_index_SRAM+11
  5885   000E24  6A2A               	clrf	(??_FsScape_get_index_SRAM+10)^0,c
  5886   000E26  6A29               	clrf	(??_FsScape_get_index_SRAM+9)^0,c
  5887   000E28  6A28               	clrf	(??_FsScape_get_index_SRAM+8)^0,c
  5888   000E2A  5024               	movf	(??_FsScape_get_index_SRAM+4)^0,w,c
  5889   000E2C  1028               	iorwf	(??_FsScape_get_index_SRAM+8)^0,w,c
  5890   000E2E  6E2C               	movwf	(??_FsScape_get_index_SRAM+12)^0,c
  5891   000E30  5025               	movf	(??_FsScape_get_index_SRAM+5)^0,w,c
  5892   000E32  1029               	iorwf	(??_FsScape_get_index_SRAM+9)^0,w,c
  5893   000E34  6E2D               	movwf	(??_FsScape_get_index_SRAM+13)^0,c
  5894   000E36  5026               	movf	(??_FsScape_get_index_SRAM+6)^0,w,c
  5895   000E38  102A               	iorwf	(??_FsScape_get_index_SRAM+10)^0,w,c
  5896   000E3A  6E2E               	movwf	(??_FsScape_get_index_SRAM+14)^0,c
  5897   000E3C  5027               	movf	(??_FsScape_get_index_SRAM+7)^0,w,c
  5898   000E3E  102B               	iorwf	(??_FsScape_get_index_SRAM+11)^0,w,c
  5899   000E40  6E2F               	movwf	(??_FsScape_get_index_SRAM+15)^0,c
  5900   000E42  5020               	movf	??_FsScape_get_index_SRAM^0,w,c
  5901   000E44  102C               	iorwf	(??_FsScape_get_index_SRAM+12)^0,w,c
  5902   000E46  6E30               	movwf	(??_FsScape_get_index_SRAM+16)^0,c
  5903   000E48  5021               	movf	(??_FsScape_get_index_SRAM+1)^0,w,c
  5904   000E4A  102D               	iorwf	(??_FsScape_get_index_SRAM+13)^0,w,c
  5905   000E4C  6E31               	movwf	(??_FsScape_get_index_SRAM+17)^0,c
  5906   000E4E  5022               	movf	(??_FsScape_get_index_SRAM+2)^0,w,c
  5907   000E50  102E               	iorwf	(??_FsScape_get_index_SRAM+14)^0,w,c
  5908   000E52  6E32               	movwf	(??_FsScape_get_index_SRAM+18)^0,c
  5909   000E54  5023               	movf	(??_FsScape_get_index_SRAM+3)^0,w,c
  5910   000E56  102F               	iorwf	(??_FsScape_get_index_SRAM+15)^0,w,c
  5911   000E58  6E33               	movwf	(??_FsScape_get_index_SRAM+19)^0,c
  5912   000E5A  5038               	movf	FsScape_get_index_SRAM@_address^0,w,c
  5913   000E5C  1030               	iorwf	(??_FsScape_get_index_SRAM+16)^0,w,c
  5914   000E5E  6E34               	movwf	(??_FsScape_get_index_SRAM+20)^0,c
  5915   000E60  5031               	movf	(??_FsScape_get_index_SRAM+17)^0,w,c
  5916   000E62  6E35               	movwf	(??_FsScape_get_index_SRAM+21)^0,c
  5917   000E64  5032               	movf	(??_FsScape_get_index_SRAM+18)^0,w,c
  5918   000E66  6E36               	movwf	(??_FsScape_get_index_SRAM+22)^0,c
  5919   000E68  5033               	movf	(??_FsScape_get_index_SRAM+19)^0,w,c
  5920   000E6A  6E37               	movwf	(??_FsScape_get_index_SRAM+23)^0,c
  5921   000E6C  C01E  FFD9         	movff	FsScape_get_index_SRAM@address,fsr2l
  5922   000E70  C01F  FFDA         	movff	FsScape_get_index_SRAM@address+1,fsr2h
  5923   000E74  C034  FFDE         	movff	??_FsScape_get_index_SRAM+20,postinc2
  5924   000E78  C035  FFDE         	movff	??_FsScape_get_index_SRAM+21,postinc2
  5925   000E7C  C036  FFDE         	movff	??_FsScape_get_index_SRAM+22,postinc2
  5926   000E80  C037  FFDE         	movff	??_FsScape_get_index_SRAM+23,postinc2
  5927   000E84                     l1285:
  5928   000E84  0012               	return		;funcret
  5929   000E86                     __end_of_FsScape_get_index_SRAM:
  5930                           	callstack 0
  5931                           
  5932 ;; *************** function _I2C_Mem_Read *****************
  5933 ;; Defined at:
  5934 ;;		line 927 in file "my_i2c_pic18.c"
  5935 ;; Parameters:    Size  Location     Type
  5936 ;;  DevAddress      1    wreg     unsigned char 
  5937 ;;  MemAdress       2    9[COMRAM] unsigned short 
  5938 ;;  MemAddSize      2   11[COMRAM] unsigned short 
  5939 ;;  pData           2   13[COMRAM] PTR unsigned char 
  5940 ;;		 -> FsScape_get_index_crc_SRAM@_address(4), FsScape_get_index_SRAM@_address(4), 
  5941 ;;  Size            2   15[COMRAM] unsigned short 
  5942 ;;  Timeout         4   17[COMRAM] unsigned long 
  5943 ;; Auto vars:     Size  Location     Type
  5944 ;;  DevAddress      1   23[COMRAM] unsigned char 
  5945 ;;  retval          2   27[COMRAM] short 
  5946 ;;  i               2   25[COMRAM] short 
  5947 ;;  SlaveAddr       1   24[COMRAM] unsigned char 
  5948 ;; Return value:  Size  Location     Type
  5949 ;;                  2    9[COMRAM] short 
  5950 ;; Registers used:
  5951 ;;		wreg, fsr2l, fsr2h, status,2, status,0, cstack
  5952 ;; Tracked objects:
  5953 ;;		On entry : 0/0
  5954 ;;		On exit  : 0/0
  5955 ;;		Unchanged: 0/0
  5956 ;; Data sizes:     COMRAM   BANK0   BANK1   BANK2   BANK3   BANK4   BANK5   BANK6   BANK7   BANK8   BANK9  BANK10  BANK1
      +1  BANK12  BANK13  BANK14  BANK15
  5957 ;;      Params:        12       0       0       0       0       0       0       0       0       0       0       0       
      +0       0       0       0       0
  5958 ;;      Locals:         6       0       0       0       0       0       0       0       0       0       0       0       
      +0       0       0       0       0
  5959 ;;      Temps:          2       0       0       0       0       0       0       0       0       0       0       0       
      +0       0       0       0       0
  5960 ;;      Totals:        20       0       0       0       0       0       0       0       0       0       0       0       
      +0       0       0       0       0
  5961 ;;Total ram usage:       20 bytes
  5962 ;; Hardware stack levels used: 1
  5963 ;; Hardware stack levels required when called: 4
  5964 ;; This function calls:
  5965 ;;		_I2C2_M_ReadByte
  5966 ;;		_I2C2_M_Restart
  5967 ;;		_I2C2_M_Start
  5968 ;;		_I2C2_M_Stop
  5969 ;;		_I2C2_M_WriteByte
  5970 ;; This function is called by:
  5971 ;;		_FsScape_get_index_SRAM
  5972 ;;		_FsScape_get_index_crc_SRAM
  5973 ;; This function uses a non-reentrant model
  5974 ;;
  5975                           
  5976                           	psect	text40
  5977   00077E                     __ptext40:
  5978                           	callstack 0
  5979   00077E                     _I2C_Mem_Read:
  5980                           	callstack 25
  5981                           
  5982                           ;incstack = 0
  5983                           ;I2C_Mem_Read@DevAddress stored from wreg
  5984   00077E  6E18               	movwf	I2C_Mem_Read@DevAddress^0,c
  5985   000780                     
  5986                           ;my_i2c_pic18.c: 927: int16_t I2C_Mem_Read(uint8_t DevAddress, uint16_t MemAdress, uint1
      +                          6_t MemAddSize, uint8_t *pData, uint16_t Size, uint32_t Timeout);my_i2c_pic18.c: 928: {;
      +                          my_i2c_pic18.c: 930:     uint8_t SlaveAddr;;my_i2c_pic18.c: 931:     int16_t retval;;my_
      +                          i2c_pic18.c: 932:     int16_t i;;my_i2c_pic18.c: 934:     if((I2Cflags & 0x0001))
  5987   000780  A057               	btfss	_I2Cflags^0,0,c
  5988   000782  EFC5  F003         	goto	u5151
  5989   000786  EFC7  F003         	goto	u5150
  5990   00078A                     u5151:
  5991   00078A  EFCD  F003         	goto	l7428
  5992   00078E                     u5150:
  5993   00078E                     
  5994                           ;my_i2c_pic18.c: 935:         return -100;
  5995   00078E  0EFF               	movlw	255
  5996   000790  6E0B               	movwf	(?_I2C_Mem_Read+1)^0,c
  5997   000792  0E9C               	movlw	156
  5998   000794  6E0A               	movwf	?_I2C_Mem_Read^0,c
  5999   000796  EF95  F004         	goto	l1247
  6000   00079A                     l7428:
  6001                           
  6002                           ;my_i2c_pic18.c: 937:     if(I2C2_M_Start() != 0)
  6003   00079A  ECEC  F009         	call	_I2C2_M_Start	;wreg free
  6004   00079E  5005               	movf	?_I2C2_M_Start^0,w,c
  6005   0007A0  1006               	iorwf	(?_I2C2_M_Start+1)^0,w,c
  6006   0007A2  B4D8               	btfsc	status,2,c
  6007   0007A4  EFD6  F003         	goto	u5161
  6008   0007A8  EFD8  F003         	goto	u5160
  6009   0007AC                     u5161:
  6010   0007AC  EFDF  F003         	goto	l1248
  6011   0007B0                     u5160:
  6012   0007B0                     l7430:
  6013                           
  6014                           ;my_i2c_pic18.c: 938:     {;my_i2c_pic18.c: 939:         I2Cflags |= 0x0001;
  6015   0007B0  8057               	bsf	_I2Cflags^0,0,c
  6016   0007B2                     
  6017                           ;my_i2c_pic18.c: 940:         return -102;
  6018   0007B2  0EFF               	movlw	255
  6019   0007B4  6E0B               	movwf	(?_I2C_Mem_Read+1)^0,c
  6020   0007B6  0E9A               	movlw	154
  6021   0007B8  6E0A               	movwf	?_I2C_Mem_Read^0,c
  6022   0007BA  EF95  F004         	goto	l1247
  6023   0007BE                     l1248:
  6024                           
  6025                           ;my_i2c_pic18.c: 943:     SlaveAddr = DevAddress;
  6026   0007BE  C018  F019         	movff	I2C_Mem_Read@DevAddress,I2C_Mem_Read@SlaveAddr
  6027   0007C2                     
  6028                           ;my_i2c_pic18.c: 944:     retval = I2C2_M_WriteByte((char) SlaveAddr);
  6029   0007C2  5019               	movf	I2C_Mem_Read@SlaveAddr^0,w,c
  6030   0007C4  EC47  F009         	call	_I2C2_M_WriteByte
  6031   0007C8  C005  F01C         	movff	?_I2C2_M_WriteByte,I2C_Mem_Read@retval
  6032   0007CC  C006  F01D         	movff	?_I2C2_M_WriteByte+1,I2C_Mem_Read@retval+1
  6033   0007D0                     
  6034                           ;my_i2c_pic18.c: 945:     if(retval == -6)
  6035   0007D0  0EFA               	movlw	250
  6036   0007D2  181C               	xorwf	I2C_Mem_Read@retval^0,w,c
  6037   0007D4  E106               	bnz	u5171
  6038   0007D6  281D               	incf	(I2C_Mem_Read@retval+1)^0,w,c
  6039   0007D8  A4D8               	btfss	status,2,c
  6040   0007DA  EFF1  F003         	goto	u5171
  6041   0007DE  EFF3  F003         	goto	u5170
  6042   0007E2                     u5171:
  6043   0007E2  EFFC  F003         	goto	l7450
  6044   0007E6                     u5170:
  6045   0007E6                     
  6046                           ;my_i2c_pic18.c: 946:     {;my_i2c_pic18.c: 947:         I2C2_M_Stop();
  6047   0007E6  EC7B  F00A         	call	_I2C2_M_Stop	;wreg free
  6048   0007EA                     
  6049                           ;my_i2c_pic18.c: 948:         I2Cflags |= 0x0001;
  6050   0007EA  8057               	bsf	_I2Cflags^0,0,c
  6051   0007EC                     
  6052                           ;my_i2c_pic18.c: 949:         return -103;
  6053   0007EC  0EFF               	movlw	255
  6054   0007EE  6E0B               	movwf	(?_I2C_Mem_Read+1)^0,c
  6055   0007F0  0E99               	movlw	153
  6056   0007F2  6E0A               	movwf	?_I2C_Mem_Read^0,c
  6057   0007F4  EF95  F004         	goto	l1247
  6058   0007F8                     l7450:
  6059   0007F8  BE1D               	btfsc	(I2C_Mem_Read@retval+1)^0,7,c
  6060   0007FA  EF03  F004         	goto	u5180
  6061   0007FE  EF01  F004         	goto	u5181
  6062   000802                     u5181:
  6063   000802  EF07  F004         	goto	l7460
  6064   000806                     u5180:
  6065   000806                     l7452:
  6066                           
  6067                           ;my_i2c_pic18.c: 951:     {;my_i2c_pic18.c: 952:         I2C2_M_Stop();
  6068   000806  EC7B  F00A         	call	_I2C2_M_Stop	;wreg free
  6069   00080A  EFD8  F003         	goto	l7430
  6070   00080E                     l7460:
  6071                           
  6072                           ;my_i2c_pic18.c: 957:     if(I2C2_M_WriteByte((char) ((MemAdress) >> 8)) != 0)
  6073   00080E  500B               	movf	(I2C_Mem_Read@MemAdress+1)^0,w,c
  6074   000810  EC47  F009         	call	_I2C2_M_WriteByte
  6075   000814  5005               	movf	?_I2C2_M_WriteByte^0,w,c
  6076   000816  1006               	iorwf	(?_I2C2_M_WriteByte+1)^0,w,c
  6077   000818  B4D8               	btfsc	status,2,c
  6078   00081A  EF11  F004         	goto	u5191
  6079   00081E  EF13  F004         	goto	u5190
  6080   000822                     u5191:
  6081   000822  EF15  F004         	goto	l7470
  6082   000826                     u5190:
  6083   000826  EF03  F004         	goto	l7452
  6084   00082A                     l7470:
  6085                           
  6086                           ;my_i2c_pic18.c: 963:     if(I2C2_M_WriteByte((char) ((MemAdress) & 0xff)) != 0)
  6087   00082A  500A               	movf	I2C_Mem_Read@MemAdress^0,w,c
  6088   00082C  EC47  F009         	call	_I2C2_M_WriteByte
  6089   000830  5005               	movf	?_I2C2_M_WriteByte^0,w,c
  6090   000832  1006               	iorwf	(?_I2C2_M_WriteByte+1)^0,w,c
  6091   000834  B4D8               	btfsc	status,2,c
  6092   000836  EF1F  F004         	goto	u5201
  6093   00083A  EF21  F004         	goto	u5200
  6094   00083E                     u5201:
  6095   00083E  EF23  F004         	goto	l7480
  6096   000842                     u5200:
  6097   000842  EF03  F004         	goto	l7452
  6098   000846                     l7480:
  6099                           
  6100                           ;my_i2c_pic18.c: 970:     if(I2C2_M_Restart() != 0)
  6101   000846  ECB3  F00A         	call	_I2C2_M_Restart	;wreg free
  6102   00084A  5005               	movf	?_I2C2_M_Restart^0,w,c
  6103   00084C  1006               	iorwf	(?_I2C2_M_Restart+1)^0,w,c
  6104   00084E  B4D8               	btfsc	status,2,c
  6105   000850  EF2C  F004         	goto	u5211
  6106   000854  EF2E  F004         	goto	u5210
  6107   000858                     u5211:
  6108   000858  EF30  F004         	goto	l7490
  6109   00085C                     u5210:
  6110   00085C  EF03  F004         	goto	l7452
  6111   000860                     l7490:
  6112                           
  6113                           ;my_i2c_pic18.c: 977:     SlaveAddr = DevAddress + 1;
  6114   000860  2818               	incf	I2C_Mem_Read@DevAddress^0,w,c
  6115   000862  6E19               	movwf	I2C_Mem_Read@SlaveAddr^0,c
  6116   000864                     
  6117                           ;my_i2c_pic18.c: 978:     if(I2C2_M_WriteByte((char) SlaveAddr) != 0)
  6118   000864  5019               	movf	I2C_Mem_Read@SlaveAddr^0,w,c
  6119   000866  EC47  F009         	call	_I2C2_M_WriteByte
  6120   00086A  5005               	movf	?_I2C2_M_WriteByte^0,w,c
  6121   00086C  1006               	iorwf	(?_I2C2_M_WriteByte+1)^0,w,c
  6122   00086E  B4D8               	btfsc	status,2,c
  6123   000870  EF3C  F004         	goto	u5221
  6124   000874  EF3E  F004         	goto	u5220
  6125   000878                     u5221:
  6126   000878  EF40  F004         	goto	l7502
  6127   00087C                     u5220:
  6128   00087C  EF03  F004         	goto	l7452
  6129   000880                     l7502:
  6130                           
  6131                           ;my_i2c_pic18.c: 984:     for(i = 0; i < Size; i++)
  6132   000880  0E00               	movlw	0
  6133   000882  6E1B               	movwf	(I2C_Mem_Read@i+1)^0,c
  6134   000884  0E00               	movlw	0
  6135   000886  6E1A               	movwf	I2C_Mem_Read@i^0,c
  6136   000888  EF79  F004         	goto	l7524
  6137   00088C                     l7504:
  6138                           
  6139                           ;my_i2c_pic18.c: 985:     {;my_i2c_pic18.c: 986:         if(i == (Size - 1))
  6140   00088C  0EFF               	movlw	255
  6141   00088E  2410               	addwf	I2C_Mem_Read@Size^0,w,c
  6142   000890  6E16               	movwf	??_I2C_Mem_Read^0,c
  6143   000892  0EFF               	movlw	255
  6144   000894  2011               	addwfc	(I2C_Mem_Read@Size+1)^0,w,c
  6145   000896  6E17               	movwf	(??_I2C_Mem_Read+1)^0,c
  6146   000898  501A               	movf	I2C_Mem_Read@i^0,w,c
  6147   00089A  1816               	xorwf	??_I2C_Mem_Read^0,w,c
  6148   00089C  E107               	bnz	u5231
  6149   00089E  501B               	movf	(I2C_Mem_Read@i+1)^0,w,c
  6150   0008A0  1817               	xorwf	(??_I2C_Mem_Read+1)^0,w,c
  6151   0008A2  A4D8               	btfss	status,2,c
  6152   0008A4  EF56  F004         	goto	u5231
  6153   0008A8  EF58  F004         	goto	u5230
  6154   0008AC                     u5231:
  6155   0008AC  EF61  F004         	goto	l7508
  6156   0008B0                     u5230:
  6157   0008B0                     
  6158                           ;my_i2c_pic18.c: 987:         {;my_i2c_pic18.c: 988:             retval = I2C2_M_ReadByt
      +                          e(1);
  6159   0008B0  0E01               	movlw	1
  6160   0008B2  ECB9  F007         	call	_I2C2_M_ReadByte
  6161   0008B6  C005  F01C         	movff	?_I2C2_M_ReadByte,I2C_Mem_Read@retval
  6162   0008BA  C006  F01D         	movff	?_I2C2_M_ReadByte+1,I2C_Mem_Read@retval+1
  6163                           
  6164                           ;my_i2c_pic18.c: 989:         } else
  6165   0008BE  EF68  F004         	goto	l7510
  6166   0008C2                     l7508:
  6167                           
  6168                           ;my_i2c_pic18.c: 990:         {;my_i2c_pic18.c: 991:             retval = I2C2_M_ReadByt
      +                          e(0);
  6169   0008C2  0E00               	movlw	0
  6170   0008C4  ECB9  F007         	call	_I2C2_M_ReadByte
  6171   0008C8  C005  F01C         	movff	?_I2C2_M_ReadByte,I2C_Mem_Read@retval
  6172   0008CC  C006  F01D         	movff	?_I2C2_M_ReadByte+1,I2C_Mem_Read@retval+1
  6173   0008D0                     l7510:
  6174                           
  6175                           ;my_i2c_pic18.c: 993:         if(retval >= 0)
  6176   0008D0  BE1D               	btfsc	(I2C_Mem_Read@retval+1)^0,7,c
  6177   0008D2  EF6D  F004         	goto	u5241
  6178   0008D6  EF6F  F004         	goto	u5240
  6179   0008DA                     u5241:
  6180   0008DA  EF03  F004         	goto	l7452
  6181   0008DE                     u5240:
  6182   0008DE                     
  6183                           ;my_i2c_pic18.c: 994:         {;my_i2c_pic18.c: 995:             pData[i] = (uint8_t)ret
      +                          val;
  6184   0008DE  501A               	movf	I2C_Mem_Read@i^0,w,c
  6185   0008E0  240E               	addwf	I2C_Mem_Read@pData^0,w,c
  6186   0008E2  6ED9               	movwf	fsr2l,c
  6187   0008E4  501B               	movf	(I2C_Mem_Read@i+1)^0,w,c
  6188   0008E6  200F               	addwfc	(I2C_Mem_Read@pData+1)^0,w,c
  6189   0008E8  6EDA               	movwf	fsr2h,c
  6190   0008EA  C01C  FFDF         	movff	I2C_Mem_Read@retval,indf2
  6191   0008EE                     
  6192                           ;my_i2c_pic18.c: 1002:     }
  6193   0008EE  4A1A               	infsnz	I2C_Mem_Read@i^0,f,c
  6194   0008F0  2A1B               	incf	(I2C_Mem_Read@i+1)^0,f,c
  6195   0008F2                     l7524:
  6196   0008F2  5010               	movf	I2C_Mem_Read@Size^0,w,c
  6197   0008F4  5C1A               	subwf	I2C_Mem_Read@i^0,w,c
  6198   0008F6  5011               	movf	(I2C_Mem_Read@Size+1)^0,w,c
  6199   0008F8  581B               	subwfb	(I2C_Mem_Read@i+1)^0,w,c
  6200   0008FA  A0D8               	btfss	status,0,c
  6201   0008FC  EF82  F004         	goto	u5251
  6202   000900  EF84  F004         	goto	u5250
  6203   000904                     u5251:
  6204   000904  EF46  F004         	goto	l7504
  6205   000908                     u5250:
  6206   000908                     
  6207                           ;my_i2c_pic18.c: 1004:     if(I2C2_M_Stop() != 0)
  6208   000908  EC7B  F00A         	call	_I2C2_M_Stop	;wreg free
  6209   00090C  5005               	movf	?_I2C2_M_Stop^0,w,c
  6210   00090E  1006               	iorwf	(?_I2C2_M_Stop+1)^0,w,c
  6211   000910  B4D8               	btfsc	status,2,c
  6212   000912  EF8D  F004         	goto	u5261
  6213   000916  EF8F  F004         	goto	u5260
  6214   00091A                     u5261:
  6215   00091A  EF91  F004         	goto	l7534
  6216   00091E                     u5260:
  6217   00091E  EFD8  F003         	goto	l7430
  6218   000922                     l7534:
  6219                           
  6220                           ;my_i2c_pic18.c: 1009:     return 0;
  6221   000922  0E00               	movlw	0
  6222   000924  6E0B               	movwf	(?_I2C_Mem_Read+1)^0,c
  6223   000926  0E00               	movlw	0
  6224   000928  6E0A               	movwf	?_I2C_Mem_Read^0,c
  6225   00092A                     l1247:
  6226   00092A  0012               	return		;funcret
  6227   00092C                     __end_of_I2C_Mem_Read:
  6228                           	callstack 0
  6229                           
  6230 ;; *************** function _I2C2_M_WriteByte *****************
  6231 ;; Defined at:
  6232 ;;		line 757 in file "my_i2c_pic18.c"
  6233 ;; Parameters:    Size  Location     Type
  6234 ;;  cData           1    wreg     unsigned char 
  6235 ;; Auto vars:     Size  Location     Type
  6236 ;;  cData           1    6[COMRAM] unsigned char 
  6237 ;;  t               2    7[COMRAM] short 
  6238 ;; Return value:  Size  Location     Type
  6239 ;;                  2    4[COMRAM] short 
  6240 ;; Registers used:
  6241 ;;		wreg, status,2, status,0
  6242 ;; Tracked objects:
  6243 ;;		On entry : 0/0
  6244 ;;		On exit  : 0/0
  6245 ;;		Unchanged: 0/0
  6246 ;; Data sizes:     COMRAM   BANK0   BANK1   BANK2   BANK3   BANK4   BANK5   BANK6   BANK7   BANK8   BANK9  BANK10  BANK1
      +1  BANK12  BANK13  BANK14  BANK15
  6247 ;;      Params:         2       0       0       0       0       0       0       0       0       0       0       0       
      +0       0       0       0       0
  6248 ;;      Locals:         3       0       0       0       0       0       0       0       0       0       0       0       
      +0       0       0       0       0
  6249 ;;      Temps:          0       0       0       0       0       0       0       0       0       0       0       0       
      +0       0       0       0       0
  6250 ;;      Totals:         5       0       0       0       0       0       0       0       0       0       0       0       
      +0       0       0       0       0
  6251 ;;Total ram usage:        5 bytes
  6252 ;; Hardware stack levels used: 1
  6253 ;; Hardware stack levels required when called: 3
  6254 ;; This function calls:
  6255 ;;		Nothing
  6256 ;; This function is called by:
  6257 ;;		_I2C2_M_Poll
  6258 ;;		_I2C_Mem_Write
  6259 ;;		_I2C_Mem_Read
  6260 ;;		_I2C2_M_Read
  6261 ;;		_I2C2_M_Read_Single
  6262 ;;		_I2C2_M_Write
  6263 ;;		_I2C2_M_Write24
  6264 ;;		_I2C2_M_Write_Single
  6265 ;; This function uses a non-reentrant model
  6266 ;;
  6267                           
  6268                           	psect	text41
  6269   00128E                     __ptext41:
  6270                           	callstack 0
  6271   00128E                     _I2C2_M_WriteByte:
  6272                           	callstack 26
  6273                           
  6274                           ;incstack = 0
  6275                           ;I2C2_M_WriteByte@cData stored from wreg
  6276   00128E  6E07               	movwf	I2C2_M_WriteByte@cData^0,c
  6277   001290                     
  6278                           ;my_i2c_pic18.c: 757: int16_t I2C2_M_WriteByte(char cData);my_i2c_pic18.c: 758: {;my_i2c
      +                          _pic18.c: 759:     int16_t t;;my_i2c_pic18.c: 761:     if(SSP1STATbits.R_NOT_W)
  6279   001290  A4C7               	btfss	199,2,c	;volatile
  6280   001292  EF4D  F009         	goto	u4841
  6281   001296  EF4F  F009         	goto	u4840
  6282   00129A                     u4841:
  6283   00129A  EF55  F009         	goto	l7076
  6284   00129E                     u4840:
  6285   00129E                     
  6286                           ;my_i2c_pic18.c: 762:     {;my_i2c_pic18.c: 763:         return -7;
  6287   00129E  0EFF               	movlw	255
  6288   0012A0  6E06               	movwf	(?_I2C2_M_WriteByte+1)^0,c
  6289   0012A2  0EF9               	movlw	249
  6290   0012A4  6E05               	movwf	?_I2C2_M_WriteByte^0,c
  6291   0012A6  EF99  F009         	goto	l1201
  6292   0012AA                     l7076:
  6293                           
  6294                           ;my_i2c_pic18.c: 766:     SSP1BUF = cData;
  6295   0012AA  C007  FFC9         	movff	I2C2_M_WriteByte@cData,4041	;volatile
  6296   0012AE                     
  6297                           ;my_i2c_pic18.c: 768:     t = 0;
  6298   0012AE  0E00               	movlw	0
  6299   0012B0  6E09               	movwf	(I2C2_M_WriteByte@t+1)^0,c
  6300   0012B2  0E00               	movlw	0
  6301   0012B4  6E08               	movwf	I2C2_M_WriteByte@t^0,c
  6302                           
  6303                           ;my_i2c_pic18.c: 770:     while(SSP1STATbits.BF1)
  6304   0012B6  EF73  F009         	goto	l1202
  6305   0012BA                     l7080:
  6306                           
  6307                           ;my_i2c_pic18.c: 771:     {;my_i2c_pic18.c: 772:         t++;
  6308   0012BA  4A08               	infsnz	I2C2_M_WriteByte@t^0,f,c
  6309   0012BC  2A09               	incf	(I2C2_M_WriteByte@t+1)^0,f,c
  6310   0012BE                     
  6311                           ;my_i2c_pic18.c: 774:         if(t > 16000)
  6312   0012BE  BE09               	btfsc	(I2C2_M_WriteByte@t+1)^0,7,c
  6313   0012C0  EF6B  F009         	goto	u4851
  6314   0012C4  0E81               	movlw	129
  6315   0012C6  5C08               	subwf	I2C2_M_WriteByte@t^0,w,c
  6316   0012C8  0E3E               	movlw	62
  6317   0012CA  5809               	subwfb	(I2C2_M_WriteByte@t+1)^0,w,c
  6318   0012CC  A0D8               	btfss	status,0,c
  6319   0012CE  EF6B  F009         	goto	u4851
  6320   0012D2  EF6D  F009         	goto	u4850
  6321   0012D6                     u4851:
  6322   0012D6  EF73  F009         	goto	l1202
  6323   0012DA                     u4850:
  6324   0012DA                     
  6325                           ;my_i2c_pic18.c: 775:         {;my_i2c_pic18.c: 776:             return -2;
  6326   0012DA  0EFF               	movlw	255
  6327   0012DC  6E06               	movwf	(?_I2C2_M_WriteByte+1)^0,c
  6328   0012DE  0EFE               	movlw	254
  6329   0012E0  6E05               	movwf	?_I2C2_M_WriteByte^0,c
  6330   0012E2  EF99  F009         	goto	l1201
  6331   0012E6                     l1202:
  6332                           
  6333                           ;my_i2c_pic18.c: 770:     while(SSP1STATbits.BF1)
  6334   0012E6  B0C7               	btfsc	199,0,c	;volatile
  6335   0012E8  EF78  F009         	goto	u4861
  6336   0012EC  EF7A  F009         	goto	u4860
  6337   0012F0                     u4861:
  6338   0012F0  EF5D  F009         	goto	l7080
  6339   0012F4                     u4860:
  6340   0012F4                     
  6341                           ;my_i2c_pic18.c: 780:     if(PIR2bits.BCL1IF)
  6342   0012F4  A6A1               	btfss	161,3,c	;volatile
  6343   0012F6  EF7F  F009         	goto	u4871
  6344   0012FA  EF81  F009         	goto	u4870
  6345   0012FE                     u4871:
  6346   0012FE  EF88  F009         	goto	l1206
  6347   001302                     u4870:
  6348   001302                     
  6349                           ;my_i2c_pic18.c: 781:     {;my_i2c_pic18.c: 782:         PIR2bits.BCL1IF = 0;
  6350   001302  96A1               	bcf	161,3,c	;volatile
  6351   001304                     
  6352                           ;my_i2c_pic18.c: 783:         return -4;
  6353   001304  0EFF               	movlw	255
  6354   001306  6E06               	movwf	(?_I2C2_M_WriteByte+1)^0,c
  6355   001308  0EFC               	movlw	252
  6356   00130A  6E05               	movwf	?_I2C2_M_WriteByte^0,c
  6357   00130C  EF99  F009         	goto	l1201
  6358   001310                     l1206:
  6359                           
  6360                           ;my_i2c_pic18.c: 787:     if(SSP1CON2bits.ACKSTAT1)
  6361   001310  ACC5               	btfss	197,6,c	;volatile
  6362   001312  EF8D  F009         	goto	u4881
  6363   001316  EF8F  F009         	goto	u4880
  6364   00131A                     u4881:
  6365   00131A  EF95  F009         	goto	l7100
  6366   00131E                     u4880:
  6367   00131E                     
  6368                           ;my_i2c_pic18.c: 788:         return -6;
  6369   00131E  0EFF               	movlw	255
  6370   001320  6E06               	movwf	(?_I2C2_M_WriteByte+1)^0,c
  6371   001322  0EFA               	movlw	250
  6372   001324  6E05               	movwf	?_I2C2_M_WriteByte^0,c
  6373   001326  EF99  F009         	goto	l1201
  6374   00132A                     l7100:
  6375                           
  6376                           ;my_i2c_pic18.c: 790:         return 0;
  6377   00132A  0E00               	movlw	0
  6378   00132C  6E06               	movwf	(?_I2C2_M_WriteByte+1)^0,c
  6379   00132E  0E00               	movlw	0
  6380   001330  6E05               	movwf	?_I2C2_M_WriteByte^0,c
  6381   001332                     l1201:
  6382   001332  0012               	return		;funcret
  6383   001334                     __end_of_I2C2_M_WriteByte:
  6384                           	callstack 0
  6385                           
  6386 ;; *************** function _I2C2_M_Stop *****************
  6387 ;; Defined at:
  6388 ;;		line 600 in file "my_i2c_pic18.c"
  6389 ;; Parameters:    Size  Location     Type
  6390 ;;		None
  6391 ;; Auto vars:     Size  Location     Type
  6392 ;;  t               2    6[COMRAM] short 
  6393 ;; Return value:  Size  Location     Type
  6394 ;;                  2    4[COMRAM] short 
  6395 ;; Registers used:
  6396 ;;		wreg, status,2, status,0
  6397 ;; Tracked objects:
  6398 ;;		On entry : 0/0
  6399 ;;		On exit  : 0/0
  6400 ;;		Unchanged: 0/0
  6401 ;; Data sizes:     COMRAM   BANK0   BANK1   BANK2   BANK3   BANK4   BANK5   BANK6   BANK7   BANK8   BANK9  BANK10  BANK1
      +1  BANK12  BANK13  BANK14  BANK15
  6402 ;;      Params:         2       0       0       0       0       0       0       0       0       0       0       0       
      +0       0       0       0       0
  6403 ;;      Locals:         2       0       0       0       0       0       0       0       0       0       0       0       
      +0       0       0       0       0
  6404 ;;      Temps:          0       0       0       0       0       0       0       0       0       0       0       0       
      +0       0       0       0       0
  6405 ;;      Totals:         4       0       0       0       0       0       0       0       0       0       0       0       
      +0       0       0       0       0
  6406 ;;Total ram usage:        4 bytes
  6407 ;; Hardware stack levels used: 1
  6408 ;; Hardware stack levels required when called: 3
  6409 ;; This function calls:
  6410 ;;		Nothing
  6411 ;; This function is called by:
  6412 ;;		_I2C2_M_Poll
  6413 ;;		_I2C_Mem_Write
  6414 ;;		_I2C_Mem_Read
  6415 ;;		_I2C2_M_Read
  6416 ;;		_I2C2_M_Read_Single
  6417 ;;		_I2C2_M_Write
  6418 ;;		_I2C2_M_Write24
  6419 ;;		_I2C2_M_Write_Single
  6420 ;; This function uses a non-reentrant model
  6421 ;;
  6422                           
  6423                           	psect	text42
  6424   0014F6                     __ptext42:
  6425                           	callstack 0
  6426   0014F6                     _I2C2_M_Stop:
  6427                           	callstack 26
  6428   0014F6                     
  6429                           ;my_i2c_pic18.c: 602:     int16_t t;;my_i2c_pic18.c: 604:     SSP1CON2bits.PEN1 = 1;
  6430   0014F6  84C5               	bsf	197,2,c	;volatile
  6431                           
  6432                           ;my_i2c_pic18.c: 605:     __nop();
  6433   0014F8  F000               	nop	
  6434                           
  6435                           ;my_i2c_pic18.c: 606:     if(PIR2bits.BCL1IF)
  6436   0014FA  A6A1               	btfss	161,3,c	;volatile
  6437   0014FC  EF82  F00A         	goto	u4891
  6438   001500  EF84  F00A         	goto	u4890
  6439   001504                     u4891:
  6440   001504  EF8B  F00A         	goto	l7112
  6441   001508                     u4890:
  6442   001508                     
  6443                           ;my_i2c_pic18.c: 607:     {;my_i2c_pic18.c: 608:         PIR2bits.BCL1IF = 0;
  6444   001508  96A1               	bcf	161,3,c	;volatile
  6445   00150A                     
  6446                           ;my_i2c_pic18.c: 609:         return -4;
  6447   00150A  0EFF               	movlw	255
  6448   00150C  6E06               	movwf	(?_I2C2_M_Stop+1)^0,c
  6449   00150E  0EFC               	movlw	252
  6450   001510  6E05               	movwf	?_I2C2_M_Stop^0,c
  6451   001512  EFB2  F00A         	goto	l1165
  6452   001516                     l7112:
  6453                           
  6454                           ;my_i2c_pic18.c: 612:     t = 0;
  6455   001516  0E00               	movlw	0
  6456   001518  6E08               	movwf	(I2C2_M_Stop@t+1)^0,c
  6457   00151A  0E00               	movlw	0
  6458   00151C  6E07               	movwf	I2C2_M_Stop@t^0,c
  6459                           
  6460                           ;my_i2c_pic18.c: 613:     while(SSP1CON2bits.PEN1)
  6461   00151E  EFA7  F00A         	goto	l1166
  6462   001522                     l7114:
  6463                           
  6464                           ;my_i2c_pic18.c: 614:     {;my_i2c_pic18.c: 615:         t++;
  6465   001522  4A07               	infsnz	I2C2_M_Stop@t^0,f,c
  6466   001524  2A08               	incf	(I2C2_M_Stop@t+1)^0,f,c
  6467   001526                     
  6468                           ;my_i2c_pic18.c: 616:         if(t > 1000)
  6469   001526  BE08               	btfsc	(I2C2_M_Stop@t+1)^0,7,c
  6470   001528  EF9F  F00A         	goto	u4901
  6471   00152C  0EE9               	movlw	233
  6472   00152E  5C07               	subwf	I2C2_M_Stop@t^0,w,c
  6473   001530  0E03               	movlw	3
  6474   001532  5808               	subwfb	(I2C2_M_Stop@t+1)^0,w,c
  6475   001534  A0D8               	btfss	status,0,c
  6476   001536  EF9F  F00A         	goto	u4901
  6477   00153A  EFA1  F00A         	goto	u4900
  6478   00153E                     u4901:
  6479   00153E  EFA7  F00A         	goto	l1166
  6480   001542                     u4900:
  6481   001542                     
  6482                           ;my_i2c_pic18.c: 617:         {;my_i2c_pic18.c: 619:             return -2;
  6483   001542  0EFF               	movlw	255
  6484   001544  6E06               	movwf	(?_I2C2_M_Stop+1)^0,c
  6485   001546  0EFE               	movlw	254
  6486   001548  6E05               	movwf	?_I2C2_M_Stop^0,c
  6487   00154A  EFB2  F00A         	goto	l1165
  6488   00154E                     l1166:
  6489                           
  6490                           ;my_i2c_pic18.c: 613:     while(SSP1CON2bits.PEN1)
  6491   00154E  B4C5               	btfsc	197,2,c	;volatile
  6492   001550  EFAC  F00A         	goto	u4911
  6493   001554  EFAE  F00A         	goto	u4910
  6494   001558                     u4911:
  6495   001558  EF91  F00A         	goto	l7114
  6496   00155C                     u4910:
  6497   00155C                     
  6498                           ;my_i2c_pic18.c: 622:     return 0;
  6499   00155C  0E00               	movlw	0
  6500   00155E  6E06               	movwf	(?_I2C2_M_Stop+1)^0,c
  6501   001560  0E00               	movlw	0
  6502   001562  6E05               	movwf	?_I2C2_M_Stop^0,c
  6503   001564                     l1165:
  6504   001564  0012               	return		;funcret
  6505   001566                     __end_of_I2C2_M_Stop:
  6506                           	callstack 0
  6507                           
  6508 ;; *************** function _I2C2_M_Start *****************
  6509 ;; Defined at:
  6510 ;;		line 554 in file "my_i2c_pic18.c"
  6511 ;; Parameters:    Size  Location     Type
  6512 ;;		None
  6513 ;; Auto vars:     Size  Location     Type
  6514 ;;  t               2    6[COMRAM] short 
  6515 ;; Return value:  Size  Location     Type
  6516 ;;                  2    4[COMRAM] short 
  6517 ;; Registers used:
  6518 ;;		wreg, status,2, status,0
  6519 ;; Tracked objects:
  6520 ;;		On entry : 0/0
  6521 ;;		On exit  : 0/0
  6522 ;;		Unchanged: 0/0
  6523 ;; Data sizes:     COMRAM   BANK0   BANK1   BANK2   BANK3   BANK4   BANK5   BANK6   BANK7   BANK8   BANK9  BANK10  BANK1
      +1  BANK12  BANK13  BANK14  BANK15
  6524 ;;      Params:         2       0       0       0       0       0       0       0       0       0       0       0       
      +0       0       0       0       0
  6525 ;;      Locals:         2       0       0       0       0       0       0       0       0       0       0       0       
      +0       0       0       0       0
  6526 ;;      Temps:          0       0       0       0       0       0       0       0       0       0       0       0       
      +0       0       0       0       0
  6527 ;;      Totals:         4       0       0       0       0       0       0       0       0       0       0       0       
      +0       0       0       0       0
  6528 ;;Total ram usage:        4 bytes
  6529 ;; Hardware stack levels used: 1
  6530 ;; Hardware stack levels required when called: 3
  6531 ;; This function calls:
  6532 ;;		Nothing
  6533 ;; This function is called by:
  6534 ;;		_I2C2_M_Poll
  6535 ;;		_I2C_Mem_Write
  6536 ;;		_I2C_Mem_Read
  6537 ;;		_I2C2_M_Read
  6538 ;;		_I2C2_M_Read_Single
  6539 ;;		_I2C2_M_Write
  6540 ;;		_I2C2_M_Write24
  6541 ;;		_I2C2_M_Write_Single
  6542 ;; This function uses a non-reentrant model
  6543 ;;
  6544                           
  6545                           	psect	text43
  6546   0013D8                     __ptext43:
  6547                           	callstack 0
  6548   0013D8                     _I2C2_M_Start:
  6549                           	callstack 26
  6550   0013D8                     
  6551                           ;my_i2c_pic18.c: 556:     int16_t t;;my_i2c_pic18.c: 558:     SSP1CON2bits.SEN1 = 1;
  6552   0013D8  80C5               	bsf	197,0,c	;volatile
  6553                           
  6554                           ;my_i2c_pic18.c: 559:     __nop();
  6555   0013DA  F000               	nop	
  6556                           
  6557                           ;my_i2c_pic18.c: 560:     if(PIR2bits.BCL1IF)
  6558   0013DC  A6A1               	btfss	161,3,c	;volatile
  6559   0013DE  EFF3  F009         	goto	u4791
  6560   0013E2  EFF5  F009         	goto	u4790
  6561   0013E6                     u4791:
  6562   0013E6  EFFD  F009         	goto	l1154
  6563   0013EA                     u4790:
  6564   0013EA                     
  6565                           ;my_i2c_pic18.c: 561:     {;my_i2c_pic18.c: 562:         SSP1CON2bits.SEN1 = 0;
  6566   0013EA  90C5               	bcf	197,0,c	;volatile
  6567                           
  6568                           ;my_i2c_pic18.c: 563:         PIR2bits.BCL1IF = 0;
  6569   0013EC  96A1               	bcf	161,3,c	;volatile
  6570   0013EE                     l7040:
  6571                           
  6572                           ;my_i2c_pic18.c: 564:         return -4;
  6573   0013EE  0EFF               	movlw	255
  6574   0013F0  6E06               	movwf	(?_I2C2_M_Start+1)^0,c
  6575   0013F2  0EFC               	movlw	252
  6576   0013F4  6E05               	movwf	?_I2C2_M_Start^0,c
  6577   0013F6  EF3D  F00A         	goto	l1155
  6578   0013FA                     l1154:
  6579                           
  6580                           ;my_i2c_pic18.c: 566:     if(SSP1CON1bits.WCOL1)
  6581   0013FA  AEC6               	btfss	198,7,c	;volatile
  6582   0013FC  EF02  F00A         	goto	u4801
  6583   001400  EF04  F00A         	goto	u4800
  6584   001404                     u4801:
  6585   001404  EF0C  F00A         	goto	l7050
  6586   001408                     u4800:
  6587   001408                     
  6588                           ;my_i2c_pic18.c: 567:     {;my_i2c_pic18.c: 568:         SSP1CON2bits.SEN1 = 0;
  6589   001408  90C5               	bcf	197,0,c	;volatile
  6590                           
  6591                           ;my_i2c_pic18.c: 569:         SSP1CON1bits.WCOL1 = 0;
  6592   00140A  9EC6               	bcf	198,7,c	;volatile
  6593   00140C                     
  6594                           ;my_i2c_pic18.c: 570:         return -5;
  6595   00140C  0EFF               	movlw	255
  6596   00140E  6E06               	movwf	(?_I2C2_M_Start+1)^0,c
  6597   001410  0EFB               	movlw	251
  6598   001412  6E05               	movwf	?_I2C2_M_Start^0,c
  6599   001414  EF3D  F00A         	goto	l1155
  6600   001418                     l7050:
  6601                           
  6602                           ;my_i2c_pic18.c: 573:     t = 0;
  6603   001418  0E00               	movlw	0
  6604   00141A  6E08               	movwf	(I2C2_M_Start@t+1)^0,c
  6605   00141C  0E00               	movlw	0
  6606   00141E  6E07               	movwf	I2C2_M_Start@t^0,c
  6607                           
  6608                           ;my_i2c_pic18.c: 574:     while(SSP1CON2bits.SEN1)
  6609   001420  EF28  F00A         	goto	l1157
  6610   001424                     l7052:
  6611                           
  6612                           ;my_i2c_pic18.c: 575:     {;my_i2c_pic18.c: 576:         t++;
  6613   001424  4A07               	infsnz	I2C2_M_Start@t^0,f,c
  6614   001426  2A08               	incf	(I2C2_M_Start@t+1)^0,f,c
  6615   001428                     
  6616                           ;my_i2c_pic18.c: 577:         if(t > 1000)
  6617   001428  BE08               	btfsc	(I2C2_M_Start@t+1)^0,7,c
  6618   00142A  EF20  F00A         	goto	u4811
  6619   00142E  0EE9               	movlw	233
  6620   001430  5C07               	subwf	I2C2_M_Start@t^0,w,c
  6621   001432  0E03               	movlw	3
  6622   001434  5808               	subwfb	(I2C2_M_Start@t+1)^0,w,c
  6623   001436  A0D8               	btfss	status,0,c
  6624   001438  EF20  F00A         	goto	u4811
  6625   00143C  EF22  F00A         	goto	u4810
  6626   001440                     u4811:
  6627   001440  EF28  F00A         	goto	l1157
  6628   001444                     u4810:
  6629   001444                     
  6630                           ;my_i2c_pic18.c: 578:         {;my_i2c_pic18.c: 579:             return -101;
  6631   001444  0EFF               	movlw	255
  6632   001446  6E06               	movwf	(?_I2C2_M_Start+1)^0,c
  6633   001448  0E9B               	movlw	155
  6634   00144A  6E05               	movwf	?_I2C2_M_Start^0,c
  6635   00144C  EF3D  F00A         	goto	l1155
  6636   001450                     l1157:
  6637                           
  6638                           ;my_i2c_pic18.c: 574:     while(SSP1CON2bits.SEN1)
  6639   001450  B0C5               	btfsc	197,0,c	;volatile
  6640   001452  EF2D  F00A         	goto	u4821
  6641   001456  EF2F  F00A         	goto	u4820
  6642   00145A                     u4821:
  6643   00145A  EF12  F00A         	goto	l7052
  6644   00145E                     u4820:
  6645   00145E                     
  6646                           ;my_i2c_pic18.c: 585:     if(PIR2bits.BCL1IF)
  6647   00145E  A6A1               	btfss	161,3,c	;volatile
  6648   001460  EF34  F00A         	goto	u4831
  6649   001464  EF36  F00A         	goto	u4830
  6650   001468                     u4831:
  6651   001468  EF39  F00A         	goto	l7066
  6652   00146C                     u4830:
  6653   00146C                     
  6654                           ;my_i2c_pic18.c: 586:     {;my_i2c_pic18.c: 587:         PIR2bits.BCL1IF = 0;
  6655   00146C  96A1               	bcf	161,3,c	;volatile
  6656   00146E  EFF7  F009         	goto	l7040
  6657   001472                     l7066:
  6658                           
  6659                           ;my_i2c_pic18.c: 591:     return 0;
  6660   001472  0E00               	movlw	0
  6661   001474  6E06               	movwf	(?_I2C2_M_Start+1)^0,c
  6662   001476  0E00               	movlw	0
  6663   001478  6E05               	movwf	?_I2C2_M_Start^0,c
  6664   00147A                     l1155:
  6665   00147A  0012               	return		;funcret
  6666   00147C                     __end_of_I2C2_M_Start:
  6667                           	callstack 0
  6668                           
  6669 ;; *************** function _I2C2_M_Restart *****************
  6670 ;; Defined at:
  6671 ;;		line 522 in file "my_i2c_pic18.c"
  6672 ;; Parameters:    Size  Location     Type
  6673 ;;		None
  6674 ;; Auto vars:     Size  Location     Type
  6675 ;;  t               2    6[COMRAM] short 
  6676 ;; Return value:  Size  Location     Type
  6677 ;;                  2    4[COMRAM] short 
  6678 ;; Registers used:
  6679 ;;		wreg, status,2, status,0
  6680 ;; Tracked objects:
  6681 ;;		On entry : 0/0
  6682 ;;		On exit  : 0/0
  6683 ;;		Unchanged: 0/0
  6684 ;; Data sizes:     COMRAM   BANK0   BANK1   BANK2   BANK3   BANK4   BANK5   BANK6   BANK7   BANK8   BANK9  BANK10  BANK1
      +1  BANK12  BANK13  BANK14  BANK15
  6685 ;;      Params:         2       0       0       0       0       0       0       0       0       0       0       0       
      +0       0       0       0       0
  6686 ;;      Locals:         2       0       0       0       0       0       0       0       0       0       0       0       
      +0       0       0       0       0
  6687 ;;      Temps:          0       0       0       0       0       0       0       0       0       0       0       0       
      +0       0       0       0       0
  6688 ;;      Totals:         4       0       0       0       0       0       0       0       0       0       0       0       
      +0       0       0       0       0
  6689 ;;Total ram usage:        4 bytes
  6690 ;; Hardware stack levels used: 1
  6691 ;; Hardware stack levels required when called: 3
  6692 ;; This function calls:
  6693 ;;		Nothing
  6694 ;; This function is called by:
  6695 ;;		_I2C_Mem_Read
  6696 ;;		_I2C2_M_Read
  6697 ;;		_I2C2_M_Read_Single
  6698 ;; This function uses a non-reentrant model
  6699 ;;
  6700                           
  6701                           	psect	text44
  6702   001566                     __ptext44:
  6703                           	callstack 0
  6704   001566                     _I2C2_M_Restart:
  6705                           	callstack 25
  6706   001566                     
  6707                           ;my_i2c_pic18.c: 524:     int16_t t;;my_i2c_pic18.c: 526:     SSP1CON2bits.RSEN1 = 1;
  6708   001566  82C5               	bsf	197,1,c	;volatile
  6709   001568                     
  6710                           ;my_i2c_pic18.c: 527:     t = 0;
  6711   001568  0E00               	movlw	0
  6712   00156A  6E08               	movwf	(I2C2_M_Restart@t+1)^0,c
  6713   00156C  0E00               	movlw	0
  6714   00156E  6E07               	movwf	I2C2_M_Restart@t^0,c
  6715                           
  6716                           ;my_i2c_pic18.c: 528:     while(SSP1CON2bits.RSEN1)
  6717   001570  EFD0  F00A         	goto	l1146
  6718   001574                     l7130:
  6719                           
  6720                           ;my_i2c_pic18.c: 529:     {;my_i2c_pic18.c: 530:         t++;
  6721   001574  4A07               	infsnz	I2C2_M_Restart@t^0,f,c
  6722   001576  2A08               	incf	(I2C2_M_Restart@t+1)^0,f,c
  6723   001578                     
  6724                           ;my_i2c_pic18.c: 531:         if(t > 1000)
  6725   001578  BE08               	btfsc	(I2C2_M_Restart@t+1)^0,7,c
  6726   00157A  EFC8  F00A         	goto	u4921
  6727   00157E  0EE9               	movlw	233
  6728   001580  5C07               	subwf	I2C2_M_Restart@t^0,w,c
  6729   001582  0E03               	movlw	3
  6730   001584  5808               	subwfb	(I2C2_M_Restart@t+1)^0,w,c
  6731   001586  A0D8               	btfss	status,0,c
  6732   001588  EFC8  F00A         	goto	u4921
  6733   00158C  EFCA  F00A         	goto	u4920
  6734   001590                     u4921:
  6735   001590  EFD0  F00A         	goto	l1146
  6736   001594                     u4920:
  6737   001594                     
  6738                           ;my_i2c_pic18.c: 532:         {;my_i2c_pic18.c: 534:             return -2;
  6739   001594  0EFF               	movlw	255
  6740   001596  6E06               	movwf	(?_I2C2_M_Restart+1)^0,c
  6741   001598  0EFE               	movlw	254
  6742   00159A  6E05               	movwf	?_I2C2_M_Restart^0,c
  6743   00159C  EFE9  F00A         	goto	l1149
  6744   0015A0                     l1146:
  6745                           
  6746                           ;my_i2c_pic18.c: 528:     while(SSP1CON2bits.RSEN1)
  6747   0015A0  B2C5               	btfsc	197,1,c	;volatile
  6748   0015A2  EFD5  F00A         	goto	u4931
  6749   0015A6  EFD7  F00A         	goto	u4930
  6750   0015AA                     u4931:
  6751   0015AA  EFBA  F00A         	goto	l7130
  6752   0015AE                     u4930:
  6753   0015AE                     
  6754                           ;my_i2c_pic18.c: 538:     if(PIR2bits.BCL1IF)
  6755   0015AE  A6A1               	btfss	161,3,c	;volatile
  6756   0015B0  EFDC  F00A         	goto	u4941
  6757   0015B4  EFDE  F00A         	goto	u4940
  6758   0015B8                     u4941:
  6759   0015B8  EFE5  F00A         	goto	l7144
  6760   0015BC                     u4940:
  6761   0015BC                     
  6762                           ;my_i2c_pic18.c: 539:     {;my_i2c_pic18.c: 540:         PIR2bits.BCL1IF = 0;
  6763   0015BC  96A1               	bcf	161,3,c	;volatile
  6764   0015BE                     
  6765                           ;my_i2c_pic18.c: 541:         return -4;
  6766   0015BE  0EFF               	movlw	255
  6767   0015C0  6E06               	movwf	(?_I2C2_M_Restart+1)^0,c
  6768   0015C2  0EFC               	movlw	252
  6769   0015C4  6E05               	movwf	?_I2C2_M_Restart^0,c
  6770   0015C6  EFE9  F00A         	goto	l1149
  6771   0015CA                     l7144:
  6772                           
  6773                           ;my_i2c_pic18.c: 544:     return 0;
  6774   0015CA  0E00               	movlw	0
  6775   0015CC  6E06               	movwf	(?_I2C2_M_Restart+1)^0,c
  6776   0015CE  0E00               	movlw	0
  6777   0015D0  6E05               	movwf	?_I2C2_M_Restart^0,c
  6778   0015D2                     l1149:
  6779   0015D2  0012               	return		;funcret
  6780   0015D4                     __end_of_I2C2_M_Restart:
  6781                           	callstack 0
  6782                           
  6783 ;; *************** function _I2C2_M_ReadByte *****************
  6784 ;; Defined at:
  6785 ;;		line 370 in file "my_i2c_pic18.c"
  6786 ;; Parameters:    Size  Location     Type
  6787 ;;  ACKflag         1    wreg     unsigned char 
  6788 ;; Auto vars:     Size  Location     Type
  6789 ;;  ACKflag         1    6[COMRAM] unsigned char 
  6790 ;;  t               2    7[COMRAM] short 
  6791 ;; Return value:  Size  Location     Type
  6792 ;;                  2    4[COMRAM] short 
  6793 ;; Registers used:
  6794 ;;		wreg, status,2, status,0
  6795 ;; Tracked objects:
  6796 ;;		On entry : 0/0
  6797 ;;		On exit  : 0/0
  6798 ;;		Unchanged: 0/0
  6799 ;; Data sizes:     COMRAM   BANK0   BANK1   BANK2   BANK3   BANK4   BANK5   BANK6   BANK7   BANK8   BANK9  BANK10  BANK1
      +1  BANK12  BANK13  BANK14  BANK15
  6800 ;;      Params:         2       0       0       0       0       0       0       0       0       0       0       0       
      +0       0       0       0       0
  6801 ;;      Locals:         3       0       0       0       0       0       0       0       0       0       0       0       
      +0       0       0       0       0
  6802 ;;      Temps:          0       0       0       0       0       0       0       0       0       0       0       0       
      +0       0       0       0       0
  6803 ;;      Totals:         5       0       0       0       0       0       0       0       0       0       0       0       
      +0       0       0       0       0
  6804 ;;Total ram usage:        5 bytes
  6805 ;; Hardware stack levels used: 1
  6806 ;; Hardware stack levels required when called: 3
  6807 ;; This function calls:
  6808 ;;		Nothing
  6809 ;; This function is called by:
  6810 ;;		_I2C_Mem_Read
  6811 ;;		_I2C2_M_Read
  6812 ;;		_I2C2_M_Read_Single
  6813 ;; This function uses a non-reentrant model
  6814 ;;
  6815                           
  6816                           	psect	text45
  6817   000F72                     __ptext45:
  6818                           	callstack 0
  6819   000F72                     _I2C2_M_ReadByte:
  6820                           	callstack 25
  6821                           
  6822                           ;incstack = 0
  6823                           ;I2C2_M_ReadByte@ACKflag stored from wreg
  6824   000F72  6E07               	movwf	I2C2_M_ReadByte@ACKflag^0,c
  6825   000F74                     
  6826                           ;my_i2c_pic18.c: 370: int16_t I2C2_M_ReadByte(uint8_t ACKflag);my_i2c_pic18.c: 371: {;my
      +                          _i2c_pic18.c: 372:     int16_t t;;my_i2c_pic18.c: 374:     if(ACKflag == 1)
  6827   000F74  0407               	decf	I2C2_M_ReadByte@ACKflag^0,w,c
  6828   000F76  A4D8               	btfss	status,2,c
  6829   000F78  EFC0  F007         	goto	u4951
  6830   000F7C  EFC2  F007         	goto	u4950
  6831   000F80                     u4951:
  6832   000F80  EFC5  F007         	goto	l1116
  6833   000F84                     u4950:
  6834   000F84                     
  6835                           ;my_i2c_pic18.c: 375:     {;my_i2c_pic18.c: 376:         SSP1CON2bits.ACKDT1 = 1;
  6836   000F84  8AC5               	bsf	197,5,c	;volatile
  6837                           
  6838                           ;my_i2c_pic18.c: 377:     } else
  6839   000F86  EFC6  F007         	goto	l1117
  6840   000F8A                     l1116:
  6841                           
  6842                           ;my_i2c_pic18.c: 378:     {;my_i2c_pic18.c: 379:         SSP1CON2bits.ACKDT1 = 0;
  6843   000F8A  9AC5               	bcf	197,5,c	;volatile
  6844   000F8C                     l1117:
  6845                           
  6846                           ;my_i2c_pic18.c: 382:     SSP1CON2bits.RCEN1 = 1;
  6847   000F8C  86C5               	bsf	197,3,c	;volatile
  6848   000F8E                     
  6849                           ;my_i2c_pic18.c: 383:     t = 0;
  6850   000F8E  0E00               	movlw	0
  6851   000F90  6E09               	movwf	(I2C2_M_ReadByte@t+1)^0,c
  6852   000F92  0E00               	movlw	0
  6853   000F94  6E08               	movwf	I2C2_M_ReadByte@t^0,c
  6854                           
  6855                           ;my_i2c_pic18.c: 385:     while(!SSP1STATbits.BF1)
  6856   000F96  EFE3  F007         	goto	l1118
  6857   000F9A                     l7154:
  6858                           
  6859                           ;my_i2c_pic18.c: 386:     {;my_i2c_pic18.c: 387:         t++;
  6860   000F9A  4A08               	infsnz	I2C2_M_ReadByte@t^0,f,c
  6861   000F9C  2A09               	incf	(I2C2_M_ReadByte@t+1)^0,f,c
  6862   000F9E                     
  6863                           ;my_i2c_pic18.c: 388:         if(t > 8000)
  6864   000F9E  BE09               	btfsc	(I2C2_M_ReadByte@t+1)^0,7,c
  6865   000FA0  EFDB  F007         	goto	u4961
  6866   000FA4  0E41               	movlw	65
  6867   000FA6  5C08               	subwf	I2C2_M_ReadByte@t^0,w,c
  6868   000FA8  0E1F               	movlw	31
  6869   000FAA  5809               	subwfb	(I2C2_M_ReadByte@t+1)^0,w,c
  6870   000FAC  A0D8               	btfss	status,0,c
  6871   000FAE  EFDB  F007         	goto	u4961
  6872   000FB2  EFDD  F007         	goto	u4960
  6873   000FB6                     u4961:
  6874   000FB6  EFE3  F007         	goto	l1118
  6875   000FBA                     u4960:
  6876   000FBA                     
  6877                           ;my_i2c_pic18.c: 389:         {;my_i2c_pic18.c: 391:             return -10;
  6878   000FBA  0EFF               	movlw	255
  6879   000FBC  6E06               	movwf	(?_I2C2_M_ReadByte+1)^0,c
  6880   000FBE  0EF6               	movlw	246
  6881   000FC0  6E05               	movwf	?_I2C2_M_ReadByte^0,c
  6882   000FC2  EF1F  F008         	goto	l1121
  6883   000FC6                     l1118:
  6884                           
  6885                           ;my_i2c_pic18.c: 385:     while(!SSP1STATbits.BF1)
  6886   000FC6  A0C7               	btfss	199,0,c	;volatile
  6887   000FC8  EFE8  F007         	goto	u4971
  6888   000FCC  EFEA  F007         	goto	u4970
  6889   000FD0                     u4971:
  6890   000FD0  EFCD  F007         	goto	l7154
  6891   000FD4                     u4970:
  6892   000FD4                     
  6893                           ;my_i2c_pic18.c: 398:     SSP1CON2bits.ACKEN1 = 1;
  6894   000FD4  88C5               	bsf	197,4,c	;volatile
  6895   000FD6                     
  6896                           ;my_i2c_pic18.c: 399:     t = 0;
  6897   000FD6  0E00               	movlw	0
  6898   000FD8  6E09               	movwf	(I2C2_M_ReadByte@t+1)^0,c
  6899   000FDA  0E00               	movlw	0
  6900   000FDC  6E08               	movwf	I2C2_M_ReadByte@t^0,c
  6901                           
  6902                           ;my_i2c_pic18.c: 400:     while(SSP1CON2bits.ACKEN1)
  6903   000FDE  EF07  F008         	goto	l1123
  6904   000FE2                     l7164:
  6905                           
  6906                           ;my_i2c_pic18.c: 401:     {;my_i2c_pic18.c: 402:         t++;
  6907   000FE2  4A08               	infsnz	I2C2_M_ReadByte@t^0,f,c
  6908   000FE4  2A09               	incf	(I2C2_M_ReadByte@t+1)^0,f,c
  6909   000FE6                     
  6910                           ;my_i2c_pic18.c: 403:         if(t > 1000)
  6911   000FE6  BE09               	btfsc	(I2C2_M_ReadByte@t+1)^0,7,c
  6912   000FE8  EFFF  F007         	goto	u4981
  6913   000FEC  0EE9               	movlw	233
  6914   000FEE  5C08               	subwf	I2C2_M_ReadByte@t^0,w,c
  6915   000FF0  0E03               	movlw	3
  6916   000FF2  5809               	subwfb	(I2C2_M_ReadByte@t+1)^0,w,c
  6917   000FF4  A0D8               	btfss	status,0,c
  6918   000FF6  EFFF  F007         	goto	u4981
  6919   000FFA  EF01  F008         	goto	u4980
  6920   000FFE                     u4981:
  6921   000FFE  EF07  F008         	goto	l1123
  6922   001002                     u4980:
  6923   001002                     
  6924                           ;my_i2c_pic18.c: 404:         {;my_i2c_pic18.c: 406:             return -2;
  6925   001002  0EFF               	movlw	255
  6926   001004  6E06               	movwf	(?_I2C2_M_ReadByte+1)^0,c
  6927   001006  0EFE               	movlw	254
  6928   001008  6E05               	movwf	?_I2C2_M_ReadByte^0,c
  6929   00100A  EF1F  F008         	goto	l1121
  6930   00100E                     l1123:
  6931                           
  6932                           ;my_i2c_pic18.c: 400:     while(SSP1CON2bits.ACKEN1)
  6933   00100E  B8C5               	btfsc	197,4,c	;volatile
  6934   001010  EF0C  F008         	goto	u4991
  6935   001014  EF0E  F008         	goto	u4990
  6936   001018                     u4991:
  6937   001018  EFF1  F007         	goto	l7164
  6938   00101C                     u4990:
  6939   00101C                     
  6940                           ;my_i2c_pic18.c: 409:     if(SSP1CON1bits.SSPOV1)
  6941   00101C  ACC6               	btfss	198,6,c	;volatile
  6942   00101E  EF13  F008         	goto	u5001
  6943   001022  EF15  F008         	goto	u5000
  6944   001026                     u5001:
  6945   001026  EF1C  F008         	goto	l1127
  6946   00102A                     u5000:
  6947   00102A                     
  6948                           ;my_i2c_pic18.c: 410:     {;my_i2c_pic18.c: 411:         SSP1CON1bits.SSPOV1 = 0;
  6949   00102A  9CC6               	bcf	198,6,c	;volatile
  6950   00102C                     
  6951                           ;my_i2c_pic18.c: 412:         return -9;
  6952   00102C  0EFF               	movlw	255
  6953   00102E  6E06               	movwf	(?_I2C2_M_ReadByte+1)^0,c
  6954   001030  0EF7               	movlw	247
  6955   001032  6E05               	movwf	?_I2C2_M_ReadByte^0,c
  6956   001034  EF1F  F008         	goto	l1121
  6957   001038                     l1127:
  6958                           
  6959                           ;my_i2c_pic18.c: 415:     return SSP1BUF;
  6960   001038  CFC9 F005          	movff	4041,?_I2C2_M_ReadByte	;volatile
  6961   00103C  6A06               	clrf	(?_I2C2_M_ReadByte+1)^0,c
  6962   00103E                     l1121:
  6963   00103E  0012               	return		;funcret
  6964   001040                     __end_of_I2C2_M_ReadByte:
  6965                           	callstack 0
  6966                           
  6967 ;; *************** function _INTERRUPT_InterruptManager *****************
  6968 ;; Defined at:
  6969 ;;		line 58 in file "mcc_generated_files/interrupt_manager.c"
  6970 ;; Parameters:    Size  Location     Type
  6971 ;;		None
  6972 ;; Auto vars:     Size  Location     Type
  6973 ;;		None
  6974 ;; Return value:  Size  Location     Type
  6975 ;;                  1    wreg      void 
  6976 ;; Registers used:
  6977 ;;		wreg, status,2, status,0, pcl, pclath, pclatu, tosl, cstack
  6978 ;; Tracked objects:
  6979 ;;		On entry : 0/0
  6980 ;;		On exit  : 0/0
  6981 ;;		Unchanged: 0/0
  6982 ;; Data sizes:     COMRAM   BANK0   BANK1   BANK2   BANK3   BANK4   BANK5   BANK6   BANK7   BANK8   BANK9  BANK10  BANK1
      +1  BANK12  BANK13  BANK14  BANK15
  6983 ;;      Params:         0       0       0       0       0       0       0       0       0       0       0       0       
      +0       0       0       0       0
  6984 ;;      Locals:         0       0       0       0       0       0       0       0       0       0       0       0       
      +0       0       0       0       0
  6985 ;;      Temps:          2       0       0       0       0       0       0       0       0       0       0       0       
      +0       0       0       0       0
  6986 ;;      Totals:         2       0       0       0       0       0       0       0       0       0       0       0       
      +0       0       0       0       0
  6987 ;;Total ram usage:        2 bytes
  6988 ;; Hardware stack levels used: 1
  6989 ;; Hardware stack levels required when called: 2
  6990 ;; This function calls:
  6991 ;;		_TMR1_ISR
  6992 ;; This function is called by:
  6993 ;;		Interrupt level 2
  6994 ;; This function uses a non-reentrant model
  6995 ;;
  6996                           
  6997                           	psect	intcode
  6998   000008                     __pintcode:
  6999                           	callstack 0
  7000   000008                     _INTERRUPT_InterruptManager:
  7001                           	callstack 19
  7002                           
  7003                           ;incstack = 0
  7004   000008  825B               	bsf	int$flags,1,c	;set compiler interrupt flag (level 2)
  7005   00000A  CFFA F003          	movff	pclath,??_INTERRUPT_InterruptManager
  7006   00000E  CFFB F004          	movff	pclatu,??_INTERRUPT_InterruptManager+1
  7007   000012                     
  7008                           ;mcc_generated_files/interrupt_manager.c: 61:     if(INTCONbits.PEIE == 1)
  7009   000012  ACF2               	btfss	242,6,c	;volatile
  7010   000014  EF0E  F000         	goto	i2u358_41
  7011   000018  EF10  F000         	goto	i2u358_40
  7012   00001C                     i2u358_41:
  7013   00001C  EF20  F000         	goto	i2l271
  7014   000020                     i2u358_40:
  7015   000020                     
  7016                           ;mcc_generated_files/interrupt_manager.c: 62:     {;mcc_generated_files/interrupt_manage
      +                          r.c: 63:         if(PIE1bits.TMR1IE == 1 && PIR1bits.TMR1IF == 1)
  7017   000020  A09D               	btfss	157,0,c	;volatile
  7018   000022  EF15  F000         	goto	i2u359_41
  7019   000026  EF17  F000         	goto	i2u359_40
  7020   00002A                     i2u359_41:
  7021   00002A  EF20  F000         	goto	i2l271
  7022   00002E                     i2u359_40:
  7023   00002E  A09E               	btfss	158,0,c	;volatile
  7024   000030  EF1C  F000         	goto	i2u360_41
  7025   000034  EF1E  F000         	goto	i2u360_40
  7026   000038                     i2u360_41:
  7027   000038  EF20  F000         	goto	i2l271
  7028   00003C                     i2u360_40:
  7029   00003C                     
  7030                           ;mcc_generated_files/interrupt_manager.c: 64:         {;mcc_generated_files/interrupt_ma
      +                          nager.c: 65:             TMR1_ISR();
  7031   00003C  EC2F  F00C         	call	_TMR1_ISR	;wreg free
  7032   000040                     i2l271:
  7033   000040  C004  FFFB         	movff	??_INTERRUPT_InterruptManager+1,pclatu
  7034   000044  C003  FFFA         	movff	??_INTERRUPT_InterruptManager,pclath
  7035   000048  925B               	bcf	int$flags,1,c	;clear compiler interrupt flag (level 2)
  7036   00004A  0011               	retfie		f
  7037   00004C                     __end_of_INTERRUPT_InterruptManager:
  7038                           	callstack 0
  7039                           
  7040 ;; *************** function _TMR1_ISR *****************
  7041 ;; Defined at:
  7042 ;;		line 158 in file "mcc_generated_files/tmr1.c"
  7043 ;; Parameters:    Size  Location     Type
  7044 ;;		None
  7045 ;; Auto vars:     Size  Location     Type
  7046 ;;		None
  7047 ;; Return value:  Size  Location     Type
  7048 ;;                  1    wreg      void 
  7049 ;; Registers used:
  7050 ;;		wreg, status,2, status,0, pcl, pclath, pclatu, tosl, cstack
  7051 ;; Tracked objects:
  7052 ;;		On entry : 0/0
  7053 ;;		On exit  : 0/0
  7054 ;;		Unchanged: 0/0
  7055 ;; Data sizes:     COMRAM   BANK0   BANK1   BANK2   BANK3   BANK4   BANK5   BANK6   BANK7   BANK8   BANK9  BANK10  BANK1
      +1  BANK12  BANK13  BANK14  BANK15
  7056 ;;      Params:         0       0       0       0       0       0       0       0       0       0       0       0       
      +0       0       0       0       0
  7057 ;;      Locals:         0       0       0       0       0       0       0       0       0       0       0       0       
      +0       0       0       0       0
  7058 ;;      Temps:          0       0       0       0       0       0       0       0       0       0       0       0       
      +0       0       0       0       0
  7059 ;;      Totals:         0       0       0       0       0       0       0       0       0       0       0       0       
      +0       0       0       0       0
  7060 ;;Total ram usage:        0 bytes
  7061 ;; Hardware stack levels used: 1
  7062 ;; Hardware stack levels required when called: 1
  7063 ;; This function calls:
  7064 ;;		NULL
  7065 ;;		_TMR1_DefaultInterruptHandler
  7066 ;;		_TMR1_WriteTimer
  7067 ;;		_increment_interrupt
  7068 ;; This function is called by:
  7069 ;;		_INTERRUPT_InterruptManager
  7070 ;; This function uses a non-reentrant model
  7071 ;;
  7072                           
  7073                           	psect	text47
  7074   00185E                     __ptext47:
  7075                           	callstack 0
  7076   00185E                     _TMR1_ISR:
  7077                           	callstack 19
  7078   00185E                     
  7079                           ;mcc_generated_files/tmr1.c: 162:     PIR1bits.TMR1IF = 0;
  7080   00185E  909E               	bcf	158,0,c	;volatile
  7081   001860                     
  7082                           ;mcc_generated_files/tmr1.c: 163:     TMR1_WriteTimer(timer1ReloadVal);
  7083   001860  C059  F001         	movff	_timer1ReloadVal,TMR1_WriteTimer@timerVal	;volatile
  7084   001864  C05A  F002         	movff	_timer1ReloadVal+1,TMR1_WriteTimer@timerVal+1	;volatile
  7085   001868  EC78  F00C         	call	_TMR1_WriteTimer	;wreg free
  7086   00186C                     
  7087                           ;mcc_generated_files/tmr1.c: 165:     if(TMR1_InterruptHandler)
  7088   00186C  0100               	movlb	0	; () banked
  7089   00186E  51FB               	movf	_TMR1_InterruptHandler& (0+255),w,b
  7090   001870  11FC               	iorwf	(_TMR1_InterruptHandler+1)& (0+255),w,b
  7091   001872  B4D8               	btfsc	status,2,c
  7092   001874  EF3E  F00C         	goto	i2u322_41
  7093   001878  EF40  F00C         	goto	i2u322_40
  7094   00187C                     i2u322_41:
  7095   00187C  EF4C  F00C         	goto	i2l388
  7096   001880                     i2u322_40:
  7097   001880                     
  7098                           ; BSR set to: 0
  7099                           ;mcc_generated_files/tmr1.c: 166:     {;mcc_generated_files/tmr1.c: 167:         TMR1_In
      +                          terruptHandler();
  7100   001880  D802               	call	i2u323_48
  7101   001882  EF4C  F00C         	goto	i2u323_49
  7102   001886                     i2u323_48:
  7103   001886  0005               	push	
  7104   001888  6EFA               	movwf	pclath,c
  7105   00188A  51FB               	movf	_TMR1_InterruptHandler& (0+255),w,b
  7106   00188C  6EFD               	movwf	tosl,c
  7107   00188E  51FC               	movf	(_TMR1_InterruptHandler+1)& (0+255),w,b
  7108   001890  6EFE               	movwf	tosh,c
  7109   001892  6AFF               	clrf	tosu,c
  7110   001894  50FA               	movf	pclath,w,c
  7111   001896  0012               	return		;indir
  7112   001898                     i2u323_49:
  7113   001898                     i2l388:
  7114   001898  0012               	return		;funcret
  7115   00189A                     __end_of_TMR1_ISR:
  7116                           	callstack 0
  7117                           
  7118 ;; *************** function _TMR1_DefaultInterruptHandler *****************
  7119 ;; Defined at:
  7120 ;;		line 176 in file "mcc_generated_files/tmr1.c"
  7121 ;; Parameters:    Size  Location     Type
  7122 ;;		None
  7123 ;; Auto vars:     Size  Location     Type
  7124 ;;		None
  7125 ;; Return value:  Size  Location     Type
  7126 ;;                  1    wreg      void 
  7127 ;; Registers used:
  7128 ;;		None
  7129 ;; Tracked objects:
  7130 ;;		On entry : 0/0
  7131 ;;		On exit  : 0/0
  7132 ;;		Unchanged: 0/0
  7133 ;; Data sizes:     COMRAM   BANK0   BANK1   BANK2   BANK3   BANK4   BANK5   BANK6   BANK7   BANK8   BANK9  BANK10  BANK1
      +1  BANK12  BANK13  BANK14  BANK15
  7134 ;;      Params:         0       0       0       0       0       0       0       0       0       0       0       0       
      +0       0       0       0       0
  7135 ;;      Locals:         0       0       0       0       0       0       0       0       0       0       0       0       
      +0       0       0       0       0
  7136 ;;      Temps:          0       0       0       0       0       0       0       0       0       0       0       0       
      +0       0       0       0       0
  7137 ;;      Totals:         0       0       0       0       0       0       0       0       0       0       0       0       
      +0       0       0       0       0
  7138 ;;Total ram usage:        0 bytes
  7139 ;; Hardware stack levels used: 1
  7140 ;; This function calls:
  7141 ;;		Nothing
  7142 ;; This function is called by:
  7143 ;;		_TMR1_Initialize
  7144 ;;		_TMR1_ISR
  7145 ;; This function uses a non-reentrant model
  7146 ;;
  7147                           
  7148                           	psect	text48
  7149   001A30                     __ptext48:
  7150                           	callstack 0
  7151   001A30                     _TMR1_DefaultInterruptHandler:
  7152                           	callstack 19
  7153   001A30  0012               	return		;funcret
  7154   001A32                     __end_of_TMR1_DefaultInterruptHandler:
  7155                           	callstack 0
  7156                           
  7157 ;; *************** function _increment_interrupt *****************
  7158 ;; Defined at:
  7159 ;;		line 57 in file "millis.c"
  7160 ;; Parameters:    Size  Location     Type
  7161 ;;		None
  7162 ;; Auto vars:     Size  Location     Type
  7163 ;;		None
  7164 ;; Return value:  Size  Location     Type
  7165 ;;                  1    wreg      void 
  7166 ;; Registers used:
  7167 ;;		wreg, status,2, status,0
  7168 ;; Tracked objects:
  7169 ;;		On entry : 0/0
  7170 ;;		On exit  : 0/0
  7171 ;;		Unchanged: 0/0
  7172 ;; Data sizes:     COMRAM   BANK0   BANK1   BANK2   BANK3   BANK4   BANK5   BANK6   BANK7   BANK8   BANK9  BANK10  BANK1
      +1  BANK12  BANK13  BANK14  BANK15
  7173 ;;      Params:         0       0       0       0       0       0       0       0       0       0       0       0       
      +0       0       0       0       0
  7174 ;;      Locals:         0       0       0       0       0       0       0       0       0       0       0       0       
      +0       0       0       0       0
  7175 ;;      Temps:          0       0       0       0       0       0       0       0       0       0       0       0       
      +0       0       0       0       0
  7176 ;;      Totals:         0       0       0       0       0       0       0       0       0       0       0       0       
      +0       0       0       0       0
  7177 ;;Total ram usage:        0 bytes
  7178 ;; Hardware stack levels used: 1
  7179 ;; This function calls:
  7180 ;;		Nothing
  7181 ;; This function is called by:
  7182 ;;		_main
  7183 ;;		_TMR1_ISR
  7184 ;; This function uses a non-reentrant model
  7185 ;;
  7186                           
  7187                           	psect	text49
  7188   0019BE                     __ptext49:
  7189                           	callstack 0
  7190   0019BE                     _increment_interrupt:
  7191                           	callstack 19
  7192   0019BE                     
  7193                           ;millis.c: 59:     _millis++;
  7194   0019BE  0E01               	movlw	1
  7195   0019C0  0100               	movlb	0	; () banked
  7196   0019C2  278E               	addwf	__millis& (0+255),f,b	;volatile
  7197   0019C4  0E00               	movlw	0
  7198   0019C6  238F               	addwfc	(__millis+1)& (0+255),f,b	;volatile
  7199   0019C8  2390               	addwfc	(__millis+2)& (0+255),f,b	;volatile
  7200   0019CA  2391               	addwfc	(__millis+3)& (0+255),f,b	;volatile
  7201   0019CC                     
  7202                           ; BSR set to: 0
  7203   0019CC  0012               	return		;funcret
  7204   0019CE                     __end_of_increment_interrupt:
  7205                           	callstack 0
  7206                           
  7207 ;; *************** function _TMR1_WriteTimer *****************
  7208 ;; Defined at:
  7209 ;;		line 121 in file "mcc_generated_files/tmr1.c"
  7210 ;; Parameters:    Size  Location     Type
  7211 ;;  timerVal        2    0[COMRAM] unsigned short 
  7212 ;; Auto vars:     Size  Location     Type
  7213 ;;		None
  7214 ;; Return value:  Size  Location     Type
  7215 ;;                  1    wreg      void 
  7216 ;; Registers used:
  7217 ;;		wreg, status,2
  7218 ;; Tracked objects:
  7219 ;;		On entry : 0/0
  7220 ;;		On exit  : 0/0
  7221 ;;		Unchanged: 0/0
  7222 ;; Data sizes:     COMRAM   BANK0   BANK1   BANK2   BANK3   BANK4   BANK5   BANK6   BANK7   BANK8   BANK9  BANK10  BANK1
      +1  BANK12  BANK13  BANK14  BANK15
  7223 ;;      Params:         2       0       0       0       0       0       0       0       0       0       0       0       
      +0       0       0       0       0
  7224 ;;      Locals:         0       0       0       0       0       0       0       0       0       0       0       0       
      +0       0       0       0       0
  7225 ;;      Temps:          0       0       0       0       0       0       0       0       0       0       0       0       
      +0       0       0       0       0
  7226 ;;      Totals:         2       0       0       0       0       0       0       0       0       0       0       0       
      +0       0       0       0       0
  7227 ;;Total ram usage:        2 bytes
  7228 ;; Hardware stack levels used: 1
  7229 ;; This function calls:
  7230 ;;		Nothing
  7231 ;; This function is called by:
  7232 ;;		_TMR1_ISR
  7233 ;;		_TMR1_Reload
  7234 ;; This function uses a non-reentrant model
  7235 ;;
  7236                           
  7237                           	psect	text50
  7238   0018F0                     __ptext50:
  7239                           	callstack 0
  7240   0018F0                     _TMR1_WriteTimer:
  7241                           	callstack 19
  7242   0018F0                     
  7243                           ;mcc_generated_files/tmr1.c: 121: void TMR1_WriteTimer(uint16_t timerVal);mcc_generated_
      +                          files/tmr1.c: 122: {;mcc_generated_files/tmr1.c: 123:     if (T1CONbits.T1SYNC == 1)
  7244   0018F0  A4CD               	btfss	205,2,c	;volatile
  7245   0018F2  EF7D  F00C         	goto	i2u294_41
  7246   0018F6  EF7F  F00C         	goto	i2u294_40
  7247   0018FA                     i2u294_41:
  7248   0018FA  EF87  F00C         	goto	i2l5062
  7249   0018FE                     i2u294_40:
  7250   0018FE                     
  7251                           ;mcc_generated_files/tmr1.c: 124:     {;mcc_generated_files/tmr1.c: 126:         T1CONbi
      +                          ts.TMR1ON = 0;
  7252   0018FE  90CD               	bcf	205,0,c	;volatile
  7253   001900                     
  7254                           ;mcc_generated_files/tmr1.c: 129:         TMR1H = (uint8_t)(timerVal >> 8);
  7255   001900  5002               	movf	(TMR1_WriteTimer@timerVal+1)^0,w,c
  7256   001902  6ECF               	movwf	207,c	;volatile
  7257   001904                     
  7258                           ;mcc_generated_files/tmr1.c: 130:         TMR1L = (uint8_t)timerVal;
  7259   001904  C001  FFCE         	movff	TMR1_WriteTimer@timerVal,4046	;volatile
  7260   001908                     
  7261                           ;mcc_generated_files/tmr1.c: 133:         T1CONbits.TMR1ON =1;
  7262   001908  80CD               	bsf	205,0,c	;volatile
  7263                           
  7264                           ;mcc_generated_files/tmr1.c: 134:     }
  7265   00190A  EF8B  F00C         	goto	i2l375
  7266   00190E                     i2l5062:
  7267                           
  7268                           ;mcc_generated_files/tmr1.c: 136:     {;mcc_generated_files/tmr1.c: 138:         TMR1H =
      +                           (uint8_t)(timerVal >> 8);
  7269   00190E  5002               	movf	(TMR1_WriteTimer@timerVal+1)^0,w,c
  7270   001910  6ECF               	movwf	207,c	;volatile
  7271   001912                     
  7272                           ;mcc_generated_files/tmr1.c: 139:         TMR1L = (uint8_t)timerVal;
  7273   001912  C001  FFCE         	movff	TMR1_WriteTimer@timerVal,4046	;volatile
  7274   001916                     i2l375:
  7275   001916  0012               	return		;funcret
  7276   001918                     __end_of_TMR1_WriteTimer:
  7277                           	callstack 0
  7278                           
  7279                           	psect	text51
  7280   000000                     __ptext51:
  7281                           	callstack 0
  7282   000000                     
  7283                           	psect	rparam
  7284   000000                     
  7285                           	psect	temp
  7286   00005B                     btemp:
  7287                           	callstack 0
  7288   00005B                     	ds	1
  7289   000000                     int$flags	set	btemp
  7290   000000                     wtemp8	set	btemp+1
  7291   000000                     ttemp5	set	btemp+1
  7292   000000                     ttemp6	set	btemp+4
  7293   000000                     ttemp7	set	btemp+8
  7294                           
  7295                           	psect	idloc
  7296                           
  7297                           ;Config register IDLOC0 @ 0x200000
  7298                           ;	unspecified, using default values
  7299   200000                     	org	2097152
  7300   200000  FF                 	db	255
  7301                           
  7302                           ;Config register IDLOC1 @ 0x200001
  7303                           ;	unspecified, using default values
  7304   200001                     	org	2097153
  7305   200001  FF                 	db	255
  7306                           
  7307                           ;Config register IDLOC2 @ 0x200002
  7308                           ;	unspecified, using default values
  7309   200002                     	org	2097154
  7310   200002  FF                 	db	255
  7311                           
  7312                           ;Config register IDLOC3 @ 0x200003
  7313                           ;	unspecified, using default values
  7314   200003                     	org	2097155
  7315   200003  FF                 	db	255
  7316                           
  7317                           ;Config register IDLOC4 @ 0x200004
  7318                           ;	unspecified, using default values
  7319   200004                     	org	2097156
  7320   200004  FF                 	db	255
  7321                           
  7322                           ;Config register IDLOC5 @ 0x200005
  7323                           ;	unspecified, using default values
  7324   200005                     	org	2097157
  7325   200005  FF                 	db	255
  7326                           
  7327                           ;Config register IDLOC6 @ 0x200006
  7328                           ;	unspecified, using default values
  7329   200006                     	org	2097158
  7330   200006  FF                 	db	255
  7331                           
  7332                           ;Config register IDLOC7 @ 0x200007
  7333                           ;	unspecified, using default values
  7334   200007                     	org	2097159
  7335   200007  FF                 	db	255
  7336                           
  7337                           	psect	config
  7338                           
  7339                           ; Padding undefined space
  7340   300000                     	org	3145728
  7341   300000  FF                 	db	255
  7342                           
  7343                           ;Config register CONFIG1H @ 0x300001
  7344                           ;	Oscillator Selection bits
  7345                           ;	FOSC = INTIO67, Internal oscillator block
  7346                           ;	4X PLL Enable
  7347                           ;	PLLCFG = OFF, Oscillator used directly
  7348                           ;	Primary clock enable bit
  7349                           ;	PRICLKEN = ON, Primary clock enabled
  7350                           ;	Fail-Safe Clock Monitor Enable bit
  7351                           ;	FCMEN = OFF, Fail-Safe Clock Monitor disabled
  7352                           ;	Internal/External Oscillator Switchover bit
  7353                           ;	IESO = OFF, Oscillator Switchover mode disabled
  7354   300001                     	org	3145729
  7355   300001  28                 	db	40
  7356                           
  7357                           ;Config register CONFIG2L @ 0x300002
  7358                           ;	Power-up Timer Enable bit
  7359                           ;	PWRTEN = OFF, Power up timer disabled
  7360                           ;	Brown-out Reset Enable bits
  7361                           ;	BOREN = SBORDIS, Brown-out Reset enabled in hardware only (SBOREN is disabled)
  7362                           ;	Brown Out Reset Voltage bits
  7363                           ;	BORV = 190, VBOR set to 1.90 V nominal
  7364   300002                     	org	3145730
  7365   300002  1F                 	db	31
  7366                           
  7367                           ;Config register CONFIG2H @ 0x300003
  7368                           ;	Watchdog Timer Enable bits
  7369                           ;	WDTEN = OFF, Watch dog timer is always disabled. SWDTEN has no effect.
  7370                           ;	Watchdog Timer Postscale Select bits
  7371                           ;	WDTPS = 32768, 1:32768
  7372   300003                     	org	3145731
  7373   300003  3C                 	db	60
  7374                           
  7375                           ; Padding undefined space
  7376   300004                     	org	3145732
  7377   300004  FF                 	db	255
  7378                           
  7379                           ;Config register CONFIG3H @ 0x300005
  7380                           ;	CCP2 MUX bit
  7381                           ;	CCP2MX = PORTC1, CCP2 input/output is multiplexed with RC1
  7382                           ;	PORTB A/D Enable bit
  7383                           ;	PBADEN = ON, PORTB<5:0> pins are configured as analog input channels on Reset
  7384                           ;	P3A/CCP3 Mux bit
  7385                           ;	CCP3MX = PORTB5, P3A/CCP3 input/output is multiplexed with RB5
  7386                           ;	HFINTOSC Fast Start-up
  7387                           ;	HFOFST = ON, HFINTOSC output and ready status are not delayed by the oscillator stable
      +                           status
  7388                           ;	Timer3 Clock input mux bit
  7389                           ;	T3CMX = PORTC0, T3CKI is on RC0
  7390                           ;	ECCP2 B output mux bit
  7391                           ;	P2BMX = PORTB5, P2B is on RB5
  7392                           ;	MCLR Pin Enable bit
  7393                           ;	MCLRE = EXTMCLR, MCLR pin enabled, RE3 input pin disabled
  7394   300005                     	org	3145733
  7395   300005  BF                 	db	191
  7396                           
  7397                           ;Config register CONFIG4L @ 0x300006
  7398                           ;	Stack Full/Underflow Reset Enable bit
  7399                           ;	STVREN = ON, Stack full/underflow will cause Reset
  7400                           ;	Single-Supply ICSP Enable bit
  7401                           ;	LVP = ON, Single-Supply ICSP enabled if MCLRE is also 1
  7402                           ;	Extended Instruction Set Enable bit
  7403                           ;	XINST = OFF, Instruction set extension and Indexed Addressing mode disabled (Legacy mo
      +                          de)
  7404                           ;	Background Debug
  7405                           ;	DEBUG = OFF, Disabled
  7406   300006                     	org	3145734
  7407   300006  85                 	db	133
  7408                           
  7409                           ; Padding undefined space
  7410   300007                     	org	3145735
  7411   300007  FF                 	db	255
  7412                           
  7413                           ;Config register CONFIG5L @ 0x300008
  7414                           ;	Code Protection Block 0
  7415                           ;	CP0 = OFF, Block 0 (000800-003FFFh) not code-protected
  7416                           ;	Code Protection Block 1
  7417                           ;	CP1 = OFF, Block 1 (004000-007FFFh) not code-protected
  7418                           ;	Code Protection Block 2
  7419                           ;	CP2 = OFF, Block 2 (008000-00BFFFh) not code-protected
  7420                           ;	Code Protection Block 3
  7421                           ;	CP3 = OFF, Block 3 (00C000-00FFFFh) not code-protected
  7422   300008                     	org	3145736
  7423   300008  0F                 	db	15
  7424                           
  7425                           ;Config register CONFIG5H @ 0x300009
  7426                           ;	Boot Block Code Protection bit
  7427                           ;	CPB = OFF, Boot block (000000-0007FFh) not code-protected
  7428                           ;	Data EEPROM Code Protection bit
  7429                           ;	CPD = OFF, Data EEPROM not code-protected
  7430   300009                     	org	3145737
  7431   300009  C0                 	db	192
  7432                           
  7433                           ;Config register CONFIG6L @ 0x30000A
  7434                           ;	Write Protection Block 0
  7435                           ;	WRT0 = OFF, Block 0 (000800-003FFFh) not write-protected
  7436                           ;	Write Protection Block 1
  7437                           ;	WRT1 = OFF, Block 1 (004000-007FFFh) not write-protected
  7438                           ;	Write Protection Block 2
  7439                           ;	WRT2 = OFF, Block 2 (008000-00BFFFh) not write-protected
  7440                           ;	Write Protection Block 3
  7441                           ;	WRT3 = OFF, Block 3 (00C000-00FFFFh) not write-protected
  7442   30000A                     	org	3145738
  7443   30000A  0F                 	db	15
  7444                           
  7445                           ;Config register CONFIG6H @ 0x30000B
  7446                           ;	Configuration Register Write Protection bit
  7447                           ;	WRTC = OFF, Configuration registers (300000-3000FFh) not write-protected
  7448                           ;	Boot Block Write Protection bit
  7449                           ;	WRTB = OFF, Boot Block (000000-0007FFh) not write-protected
  7450                           ;	Data EEPROM Write Protection bit
  7451                           ;	WRTD = OFF, Data EEPROM not write-protected
  7452   30000B                     	org	3145739
  7453   30000B  E0                 	db	224
  7454                           
  7455                           ;Config register CONFIG7L @ 0x30000C
  7456                           ;	Table Read Protection Block 0
  7457                           ;	EBTR0 = OFF, Block 0 (000800-003FFFh) not protected from table reads executed in other
      +                           blocks
  7458                           ;	Table Read Protection Block 1
  7459                           ;	EBTR1 = OFF, Block 1 (004000-007FFFh) not protected from table reads executed in other
      +                           blocks
  7460                           ;	Table Read Protection Block 2
  7461                           ;	EBTR2 = OFF, Block 2 (008000-00BFFFh) not protected from table reads executed in other
      +                           blocks
  7462                           ;	Table Read Protection Block 3
  7463                           ;	EBTR3 = OFF, Block 3 (00C000-00FFFFh) not protected from table reads executed in other
      +                           blocks
  7464   30000C                     	org	3145740
  7465   30000C  0F                 	db	15
  7466                           
  7467                           ;Config register CONFIG7H @ 0x30000D
  7468                           ;	Boot Block Table Read Protection bit
  7469                           ;	EBTRB = OFF, Boot Block (000000-0007FFh) not protected from table reads executed in ot
      +                          her blocks
  7470   30000D                     	org	3145741
  7471   30000D  40                 	db	64
  7472                           tosu	equ	0xFFF
  7473                           tosh	equ	0xFFE
  7474                           tosl	equ	0xFFD
  7475                           stkptr	equ	0xFFC
  7476                           pclatu	equ	0xFFB
  7477                           pclath	equ	0xFFA
  7478                           pcl	equ	0xFF9
  7479                           tblptru	equ	0xFF8
  7480                           tblptrh	equ	0xFF7
  7481                           tblptrl	equ	0xFF6
  7482                           tablat	equ	0xFF5
  7483                           prodh	equ	0xFF4
  7484                           prodl	equ	0xFF3
  7485                           indf0	equ	0xFEF
  7486                           postinc0	equ	0xFEE
  7487                           postdec0	equ	0xFED
  7488                           preinc0	equ	0xFEC
  7489                           plusw0	equ	0xFEB
  7490                           fsr0h	equ	0xFEA
  7491                           fsr0l	equ	0xFE9
  7492                           wreg	equ	0xFE8
  7493                           indf1	equ	0xFE7
  7494                           postinc1	equ	0xFE6
  7495                           postdec1	equ	0xFE5
  7496                           preinc1	equ	0xFE4
  7497                           plusw1	equ	0xFE3
  7498                           fsr1h	equ	0xFE2
  7499                           fsr1l	equ	0xFE1
  7500                           bsr	equ	0xFE0
  7501                           indf2	equ	0xFDF
  7502                           postinc2	equ	0xFDE
  7503                           postdec2	equ	0xFDD
  7504                           preinc2	equ	0xFDC
  7505                           plusw2	equ	0xFDB
  7506                           fsr2h	equ	0xFDA
  7507                           fsr2l	equ	0xFD9
  7508                           status	equ	0xFD8

Data Sizes:
    Strings     383
    Constant    43
    Data        11
    BSS         366
    Persistent  8
    Stack       0

Auto Spaces:
    Space          Size  Autos    Used
    COMRAM           94     86      90
    BANK0           160     36     159
    BANK1           256    254     256
    BANK2           256      0     256
    BANK3           256      4       4
    BANK4           256      0       0
    BANK5           256      0       0
    BANK6           256      0       0
    BANK7           256      0       0
    BANK8           256      0       0
    BANK9           256      0       0
    BANK10          256      0       0
    BANK11          256      0       0
    BANK12          256      0       0
    BANK13          256      0       0
    BANK14          256      0       0
    BANK15           56      0       0

Pointer List with Targets:

    I2C1_Read1ByteRegister@returnValue.data	PTR unsigned char  size(2) Largest target is 0

    I2C1_Read2ByteRegister@returnValue.data	PTR unsigned char  size(2) Largest target is 0

    I2C1_Write1ByteRegister@data.data	PTR unsigned char  size(2) Largest target is 0

    I2C1_Write2ByteRegister@data.data	PTR unsigned char  size(2) Largest target is 0

    I2C1_DO_TX$3992$0	PTR void  size(2) Largest target is 5
		 -> I2C1_ReadDataBlock@bufferBlock(COMRAM[4]), I2C1_Write2ByteRegister@data(COMRAM[2]), I2C1_Write1ByteRegister@data(COMRAM[1]), I2C1_Read2ByteRegister@returnValue(COMRAM[2]), 
		 -> NULL(NULL[0]), I2C1_Read1ByteRegister@returnValue(COMRAM[1]), 

    I2C1_DO_RX$3998$0	PTR void  size(2) Largest target is 5
		 -> I2C1_ReadDataBlock@bufferBlock(COMRAM[4]), I2C1_Write2ByteRegister@data(COMRAM[2]), I2C1_Write1ByteRegister@data(COMRAM[1]), I2C1_Read2ByteRegister@returnValue(COMRAM[2]), 
		 -> NULL(NULL[0]), I2C1_Read1ByteRegister@returnValue(COMRAM[1]), 

    I2C1_DO_TX_EMPTY$4004$0	PTR void  size(2) Largest target is 5
		 -> I2C1_ReadDataBlock@bufferBlock(COMRAM[4]), I2C1_Write2ByteRegister@data(COMRAM[2]), I2C1_Write1ByteRegister@data(COMRAM[1]), I2C1_Read2ByteRegister@returnValue(COMRAM[2]), 
		 -> NULL(NULL[0]), I2C1_Read1ByteRegister@returnValue(COMRAM[1]), 

    I2C1_DO_RX_EMPTY$4010$0	PTR void  size(2) Largest target is 5
		 -> I2C1_ReadDataBlock@bufferBlock(COMRAM[4]), I2C1_Write2ByteRegister@data(COMRAM[2]), I2C1_Write1ByteRegister@data(COMRAM[1]), I2C1_Read2ByteRegister@returnValue(COMRAM[2]), 
		 -> NULL(NULL[0]), I2C1_Read1ByteRegister@returnValue(COMRAM[1]), 

    cb$0	PTR void  size(2) Largest target is 5
		 -> I2C1_ReadDataBlock@bufferBlock(COMRAM[4]), I2C1_Write2ByteRegister@data(COMRAM[2]), I2C1_Write1ByteRegister@data(COMRAM[1]), I2C1_Read2ByteRegister@returnValue(COMRAM[2]), 
		 -> NULL(NULL[0]), I2C1_Read1ByteRegister@returnValue(COMRAM[1]), 

    cb$0	PTR void  size(2) Largest target is 5
		 -> I2C1_ReadDataBlock@bufferBlock(COMRAM[4]), I2C1_Write2ByteRegister@data(COMRAM[2]), I2C1_Write1ByteRegister@data(COMRAM[1]), I2C1_Read2ByteRegister@returnValue(COMRAM[2]), 
		 -> NULL(NULL[0]), I2C1_Read1ByteRegister@returnValue(COMRAM[1]), 

    S1172$0$0	PTR void  size(2) Largest target is 5
		 -> I2C1_ReadDataBlock@bufferBlock(COMRAM[4]), I2C1_Write2ByteRegister@data(COMRAM[2]), I2C1_Write1ByteRegister@data(COMRAM[1]), I2C1_Read2ByteRegister@returnValue(COMRAM[2]), 
		 -> NULL(NULL[0]), I2C1_Read1ByteRegister@returnValue(COMRAM[1]), 

    FsScape_CSbit	PTR unsigned short  size(2) Largest target is 0
		 -> NULL(NULL[0]), 

    FsScape_CS	PTR unsigned short  size(2) Largest target is 0
		 -> NULL(NULL[0]), 

    fputs@s	PTR const unsigned char  size(2) Largest target is 32
		 -> dbuf(BANK0[32]), 

    fputs@fp	PTR struct _IO_FILE size(2) Largest target is 0
		 -> NULL(NULL[0]), 

    S3430$source	PTR const unsigned char  size(2) Largest target is 0

    fputc@fp...source	PTR const unsigned char  size(2) Largest target is 0

    S3430$buffer	PTR unsigned char  size(2) Largest target is 0

    fputc@fp...buffer	PTR unsigned char  size(2) Largest target is 0

    fputc@fp	PTR struct _IO_FILE size(2) Largest target is 0
		 -> NULL(NULL[0]), 

    vfprintf@ap	PTR PTR void  size(2) Largest target is 2
		 -> printf@ap(COMRAM[2]), 

    vfprintf@fp	PTR struct _IO_FILE size(2) Largest target is 0
		 -> NULL(NULL[0]), 

    vfprintf@fmt	PTR const unsigned char  size(2) Largest target is 44
		 -> STR_13(CODE[26]), STR_12(CODE[29]), STR_11(CODE[24]), STR_10(CODE[34]), 
		 -> STR_9(CODE[34]), STR_8(CODE[29]), STR_7(CODE[39]), STR_6(CODE[34]), 
		 -> STR_5(CODE[44]), STR_4(CODE[41]), STR_3(CODE[41]), STR_2(CODE[24]), 
		 -> STR_1(CODE[18]), 

    vfprintf@cfmt	PTR unsigned char  size(2) Largest target is 44
		 -> STR_13(CODE[26]), STR_12(CODE[29]), STR_11(CODE[24]), STR_10(CODE[34]), 
		 -> STR_9(CODE[34]), STR_8(CODE[29]), STR_7(CODE[39]), STR_6(CODE[34]), 
		 -> STR_5(CODE[44]), STR_4(CODE[41]), STR_3(CODE[41]), STR_2(CODE[24]), 
		 -> STR_1(CODE[18]), 

    vfpfcnvrt@fp	PTR struct _IO_FILE size(2) Largest target is 0
		 -> NULL(NULL[0]), 

    vfpfcnvrt@ap	PTR PTR void  size(2) Largest target is 2
		 -> printf@ap(COMRAM[2]), 

    vfpfcnvrt@cp	PTR unsigned char  size(2) Largest target is 44
		 -> STR_13(CODE[26]), STR_12(CODE[29]), STR_11(CODE[24]), STR_10(CODE[34]), 
		 -> STR_9(CODE[34]), STR_8(CODE[29]), STR_7(CODE[39]), STR_6(CODE[34]), 
		 -> STR_5(CODE[44]), STR_4(CODE[41]), STR_3(CODE[41]), STR_2(CODE[24]), 
		 -> STR_1(CODE[18]), 

    vfpfcnvrt@fmt	PTR PTR unsigned char  size(2) Largest target is 2
		 -> vfprintf@cfmt(COMRAM[2]), 

    S3469$vp	PTR void  size(2) Largest target is 0

    convarg.vp	PTR void  size(2) Largest target is 0

    xtoa@fp	PTR struct _IO_FILE size(2) Largest target is 0
		 -> NULL(NULL[0]), 

    dtoa@fp	PTR struct _IO_FILE size(2) Largest target is 0
		 -> NULL(NULL[0]), 

    pad@buf	PTR unsigned char  size(2) Largest target is 32
		 -> dbuf(BANK0[32]), 

    pad@fp	PTR struct _IO_FILE size(2) Largest target is 0
		 -> NULL(NULL[0]), 

    printf@fmt	PTR const unsigned char  size(2) Largest target is 44
		 -> STR_13(CODE[26]), STR_12(CODE[29]), STR_11(CODE[24]), STR_10(CODE[34]), 
		 -> STR_9(CODE[34]), STR_8(CODE[29]), STR_7(CODE[39]), STR_6(CODE[34]), 
		 -> STR_5(CODE[44]), STR_4(CODE[41]), STR_3(CODE[41]), STR_2(CODE[24]), 
		 -> STR_1(CODE[18]), 

    printf@ap	PTR void [1] size(2) Largest target is 2
		 -> ?_printf(COMRAM[2]), 

    FsScape_get_index_crc_SRAM@crc	PTR unsigned long  size(2) Largest target is 4
		 -> main@check2(BANK3[4]), 

    FsScape_get_index_crc_SRAM@data	PTR volatile unsigned long  size(2) Largest target is 4
		 -> main@check2(BANK3[4]), 

    FsScape_get_index_SRAM@address	PTR unsigned long  size(2) Largest target is 4
		 -> main@adressme2(BANK0[4]), main@adressme(BANK0[4]), 

    FsScape_get_index_SRAM@data	PTR volatile unsigned long  size(2) Largest target is 4
		 -> main@adressme2(BANK0[4]), main@adressme(BANK0[4]), 

    I2C_Mem_Read@pData	PTR unsigned char  size(2) Largest target is 4
		 -> FsScape_get_index_crc_SRAM@_address(COMRAM[4]), FsScape_get_index_SRAM@_address(COMRAM[4]), 

    I2C_Mem_Write@pData	PTR unsigned char  size(2) Largest target is 4
		 -> FsScape_set_index_crc_SRAM@_address(COMRAM[4]), FsScape_set_index_SRAM@_address(COMRAM[4]), 

    S1172$data_ptr	PTR unsigned char  size(2) Largest target is 5
		 -> I2C1_ReadDataBlock@reg(COMRAM[1]), I2C1_ReadDataBlock@bufferBlock(COMRAM[4]), I2C1_Write2ByteRegister@reg(COMRAM[1]), I2C1_Write2ByteRegister@data(COMRAM[2]), 
		 -> I2C1_Write1ByteRegister@reg(COMRAM[1]), I2C1_Write1ByteRegister@data(COMRAM[1]), I2C1_Read2ByteRegister@reg(COMRAM[1]), I2C1_Read2ByteRegister@returnValue(COMRAM[2]), 
		 -> NULL(NULL[0]), I2C1_Read1ByteRegister@reg(COMRAM[1]), I2C1_Read1ByteRegister@returnValue(COMRAM[1]), 

    I2C1_Status.data_ptr	PTR unsigned char  size(2) Largest target is 5
		 -> I2C1_Read1ByteRegister@returnValue.data(COMRAM[3]), I2C1_Read2ByteRegister@returnValue.data(COMRAM[3]), I2C1_Write1ByteRegister@data.data(COMRAM[3]), I2C1_Write2ByteRegister@data.data(COMRAM[3]), 
		 -> I2C1_ReadDataBlock@reg(COMRAM[1]), I2C1_ReadDataBlock@bufferBlock(COMRAM[4]), bufferBlock.data(COMRAM[3]), I2C1_Write2ByteRegister@reg(COMRAM[1]), 
		 -> I2C1_Write2ByteRegister@data(COMRAM[2]), I2C1_Write1ByteRegister@reg(COMRAM[1]), I2C1_Write1ByteRegister@data(COMRAM[1]), I2C1_Read2ByteRegister@reg(COMRAM[1]), 
		 -> I2C1_Read2ByteRegister@returnValue(COMRAM[2]), NULL(NULL[0]), I2C1_Read1ByteRegister@reg(COMRAM[1]), I2C1_Read1ByteRegister@returnValue(COMRAM[1]), 

    S1172$callbackPayload	PTR void [6] size(2) Largest target is 5
		 -> I2C1_ReadDataBlock@bufferBlock(COMRAM[4]), I2C1_Write2ByteRegister@data(COMRAM[2]), I2C1_Write1ByteRegister@data(COMRAM[1]), I2C1_Read2ByteRegister@returnValue(COMRAM[2]), 
		 -> NULL(NULL[0]), I2C1_Read1ByteRegister@returnValue(COMRAM[1]), 

    I2C1_Status.callbackPayload	PTR void [6] size(2) Largest target is 5
		 -> I2C1_ReadDataBlock@bufferBlock(COMRAM[4]), I2C1_Write2ByteRegister@data(COMRAM[2]), I2C1_Write1ByteRegister@data(COMRAM[1]), I2C1_Read2ByteRegister@returnValue(COMRAM[2]), 
		 -> NULL(NULL[0]), I2C1_Read1ByteRegister@returnValue(COMRAM[1]), 

    S1172$callbackTable	PTR FTN(PTR void ,)enum E363[6] size(2) Largest target is 1
		 -> I2C1_CallbackReturnReset(), I2C1_CallbackReturnStop(), NULL(), rdBlkRegCompleteHandler(), 
		 -> wr2RegCompleteHandler(), wr1RegCompleteHandler(), rd2RegCompleteHandler(), rd1RegCompleteHandler(), 

    I2C1_Status.callbackTable	PTR FTN(PTR void ,)enum E363[6] size(2) Largest target is 1
		 -> I2C1_CallbackReturnReset(), I2C1_CallbackReturnStop(), NULL(), rdBlkRegCompleteHandler(), 
		 -> wr2RegCompleteHandler(), wr1RegCompleteHandler(), rd2RegCompleteHandler(), rd1RegCompleteHandler(), 

    i2c1_fsmStateTable	const PTR FTN()enum E6150[16] size(2) Largest target is 1
		 -> I2C1_DO_ADDRESS_NACK(), I2C1_DO_RESET(), I2C1_DO_RX_NACK_RESTART(), I2C1_DO_RX_NACK_STOP(), 
		 -> I2C1_DO_RX_ACK(), I2C1_DO_SEND_STOP(), I2C1_DO_SEND_RESTART(), I2C1_DO_SEND_RESTART_WRITE(), 
		 -> I2C1_DO_SEND_RESTART_READ(), I2C1_DO_TX_EMPTY(), I2C1_DO_RCEN(), I2C1_DO_RX(), 
		 -> I2C1_DO_TX(), I2C1_DO_SEND_ADR_WRITE(), I2C1_DO_SEND_ADR_READ(), I2C1_DO_IDLE(), 

    TMR1_SetInterruptHandler@InterruptHandler	PTR FTN()void  size(2) Largest target is 1
		 -> increment_interrupt(), TMR1_DefaultInterruptHandler(), 

    TMR1_InterruptHandler	PTR FTN()void  size(2) Largest target is 1
		 -> increment_interrupt(), NULL(), TMR1_DefaultInterruptHandler(), 

    EUSART1_SetErrorHandler@interruptHandler	PTR FTN()void  size(2) Largest target is 1
		 -> EUSART1_DefaultErrorHandler(), 

    EUSART1_ErrorHandler	PTR FTN()void  size(2) Largest target is 1
		 -> NULL(), EUSART1_DefaultErrorHandler(), 

    EUSART1_SetOverrunErrorHandler@interruptHandler	PTR FTN()void  size(2) Largest target is 1
		 -> EUSART1_DefaultOverrunErrorHandler(), 

    EUSART1_OverrunErrorHandler	PTR FTN()void  size(2) Largest target is 1
		 -> NULL(), EUSART1_DefaultOverrunErrorHandler(), 

    EUSART1_SetFramingErrorHandler@interruptHandler	PTR FTN()void  size(2) Largest target is 1
		 -> EUSART1_DefaultFramingErrorHandler(), 

    EUSART1_FramingErrorHandler	PTR FTN()void  size(2) Largest target is 1
		 -> NULL(), EUSART1_DefaultFramingErrorHandler(), 

    rdBlkRegCompleteHandler@ptr.data	PTR unsigned char  size(2) Largest target is 0

    S96$data	PTR unsigned char  size(2) Largest target is 0

    bufferBlock.data	PTR unsigned char  size(2) Largest target is 0


Critical Paths under _main in COMRAM

    _main->_printf
    _printf->_vfprintf
    _vfprintf->_vfpfcnvrt
    _vfpfcnvrt->_xtoa
    _xtoa->_pad
    _dtoa->_pad
    _pad->_fputs
    _fputs->_fputc
    _fputc->_putch
    _putch->_EUSART1_Write
    _abs->___almod
    _TMR1_Initialize->_TMR1_SetInterruptHandler
    _EUSART1_Initialize->_EUSART1_SetErrorHandler
    _EUSART1_Initialize->_EUSART1_SetFramingErrorHandler
    _EUSART1_Initialize->_EUSART1_SetOverrunErrorHandler
    _I2C_ModuleStart->___lldiv
    _I2C2_M_Poll->_I2C2_M_RecoverBus
    _I2C2_M_RecoverBus->_I2C2_M_BusReset
    _FsScape_set_index_crc_SRAM->_I2C_Mem_Write
    _FsScape_set_index_SRAM->_I2C_Mem_Write
    _I2C_Mem_Write->_I2C2_M_WriteByte
    _FsScape_get_index_crc_SRAM->_I2C_Mem_Read
    _FsScape_get_index_SRAM->_I2C_Mem_Read
    _I2C_Mem_Read->_I2C2_M_ReadByte
    _I2C_Mem_Read->_I2C2_M_WriteByte

Critical Paths under _INTERRUPT_InterruptManager in COMRAM

    _TMR1_ISR->_TMR1_WriteTimer

Critical Paths under _main in BANK0

    None.

Critical Paths under _INTERRUPT_InterruptManager in BANK0

    None.

Critical Paths under _main in BANK1

    None.

Critical Paths under _INTERRUPT_InterruptManager in BANK1

    None.

Critical Paths under _main in BANK2

    None.

Critical Paths under _INTERRUPT_InterruptManager in BANK2

    None.

Critical Paths under _main in BANK3

    None.

Critical Paths under _INTERRUPT_InterruptManager in BANK3

    None.

Critical Paths under _main in BANK4

    None.

Critical Paths under _INTERRUPT_InterruptManager in BANK4

    None.

Critical Paths under _main in BANK5

    None.

Critical Paths under _INTERRUPT_InterruptManager in BANK5

    None.

Critical Paths under _main in BANK6

    None.

Critical Paths under _INTERRUPT_InterruptManager in BANK6

    None.

Critical Paths under _main in BANK7

    None.

Critical Paths under _INTERRUPT_InterruptManager in BANK7

    None.

Critical Paths under _main in BANK8

    None.

Critical Paths under _INTERRUPT_InterruptManager in BANK8

    None.

Critical Paths under _main in BANK9

    None.

Critical Paths under _INTERRUPT_InterruptManager in BANK9

    None.

Critical Paths under _main in BANK10

    None.

Critical Paths under _INTERRUPT_InterruptManager in BANK10

    None.

Critical Paths under _main in BANK11

    None.

Critical Paths under _INTERRUPT_InterruptManager in BANK11

    None.

Critical Paths under _main in BANK12

    None.

Critical Paths under _INTERRUPT_InterruptManager in BANK12

    None.

Critical Paths under _main in BANK13

    None.

Critical Paths under _INTERRUPT_InterruptManager in BANK13

    None.

Critical Paths under _main in BANK14

    None.

Critical Paths under _INTERRUPT_InterruptManager in BANK14

    None.

Critical Paths under _main in BANK15

    None.

Critical Paths under _INTERRUPT_InterruptManager in BANK15

    None.

Call Graph Tables:

 ---------------------------------------------------------------------------------
 (Depth) Function   	        Calls       Base Space   Used Autos Params    Refs
 ---------------------------------------------------------------------------------
 (0) _main                                               307   307      0   22361
                                             85 COMRAM     1     1      0
                                              0 BANK0     36    36      0
                                              0 BANK1    254   254      0
                                              0 BANK3      4     4      0
             _FsScape_get_index_SRAM
         _FsScape_get_index_crc_SRAM
             _FsScape_set_index_SRAM
         _FsScape_set_index_crc_SRAM
                    _I2C2_M_BusReset
                        _I2C2_M_Poll
                          _I2C_HWini
                    _I2C_ModuleStart
                     _I2C_ModuleStop
                  _SYSTEM_Initialize
           _TMR1_SetInterruptHandler
                             _millis
                             _printf
 ---------------------------------------------------------------------------------
 (1) _printf                                              10     4      6   12559
                                             77 COMRAM     8     2      6
                           _vfprintf
 ---------------------------------------------------------------------------------
 (2) _vfprintf                                             8     2      6   11290
                                             69 COMRAM     8     2      6
                          _vfpfcnvrt
 ---------------------------------------------------------------------------------
 (3) _vfpfcnvrt                                           21    15      6   10823
                                             52 COMRAM    17    11      6
                               _dtoa
                              _fputc
                               _xtoa
 ---------------------------------------------------------------------------------
 (4) _xtoa                                                19    13      6    3608
                                             33 COMRAM    19    13      6
                                _pad
 ---------------------------------------------------------------------------------
 (4) _dtoa                                                15     9      6    5162
                                             33 COMRAM    15     9      6
                            ___aldiv
                            ___almod
                                _abs
                                _pad
 ---------------------------------------------------------------------------------
 (5) _pad                                                 11     5      6    2927
                                             22 COMRAM    11     5      6
                              _fputc
                              _fputs
 ---------------------------------------------------------------------------------
 (6) _fputs                                                7     3      4    1239
                                             15 COMRAM     7     3      4
                              _fputc
 ---------------------------------------------------------------------------------
 (7) _fputc                                                9     5      4     919
                                              6 COMRAM     9     5      4
                              _putch
 ---------------------------------------------------------------------------------
 (8) _putch                                                1     1      0      62
                                              5 COMRAM     1     1      0
                      _EUSART1_Write
 ---------------------------------------------------------------------------------
 (9) _EUSART1_Write                                        1     1      0      31
                                              4 COMRAM     1     1      0
 ---------------------------------------------------------------------------------
 (5) _abs                                                  4     2      2     183
                                             14 COMRAM     4     2      2
                            ___almod (ARG)
 ---------------------------------------------------------------------------------
 (5) ___almod                                             10     2      8     613
                                              4 COMRAM    10     2      8
 ---------------------------------------------------------------------------------
 (5) ___aldiv                                             14     6      8     625
                                              4 COMRAM    14     6      8
 ---------------------------------------------------------------------------------
 (1) _millis                                               8     4      4      34
                                              4 COMRAM     8     4      4
 ---------------------------------------------------------------------------------
 (1) _SYSTEM_Initialize                                    0     0      0     574
                 _EUSART1_Initialize
                    _I2C1_Initialize
               _INTERRUPT_Initialize
              _OSCILLATOR_Initialize
             _PIN_MANAGER_Initialize
                    _SPI2_Initialize
                    _TMR1_Initialize
 ---------------------------------------------------------------------------------
 (2) _TMR1_Initialize                                      0     0      0     211
           _TMR1_SetInterruptHandler
 ---------------------------------------------------------------------------------
 (1) _TMR1_SetInterruptHandler                             2     0      2     211
                                              4 COMRAM     2     0      2
 ---------------------------------------------------------------------------------
 (2) _SPI2_Initialize                                      0     0      0       0
 ---------------------------------------------------------------------------------
 (2) _PIN_MANAGER_Initialize                               0     0      0       0
 ---------------------------------------------------------------------------------
 (2) _OSCILLATOR_Initialize                                0     0      0       0
 ---------------------------------------------------------------------------------
 (2) _INTERRUPT_Initialize                                 0     0      0       0
 ---------------------------------------------------------------------------------
 (2) _I2C1_Initialize                                      0     0      0       0
 ---------------------------------------------------------------------------------
 (2) _EUSART1_Initialize                                   0     0      0     363
            _EUSART1_SetErrorHandler
     _EUSART1_SetFramingErrorHandler
     _EUSART1_SetOverrunErrorHandler
 ---------------------------------------------------------------------------------
 (3) _EUSART1_SetOverrunErrorHandler                       2     0      2     121
                                              4 COMRAM     2     0      2
 ---------------------------------------------------------------------------------
 (3) _EUSART1_SetFramingErrorHandler                       2     0      2     121
                                              4 COMRAM     2     0      2
 ---------------------------------------------------------------------------------
 (3) _EUSART1_SetErrorHandler                              2     0      2     121
                                              4 COMRAM     2     0      2
 ---------------------------------------------------------------------------------
 (1) _I2C_ModuleStop                                       0     0      0       0
 ---------------------------------------------------------------------------------
 (1) _I2C_ModuleStart                                      4     0      4     573
                                             17 COMRAM     4     0      4
                            ___lldiv
 ---------------------------------------------------------------------------------
 (2) ___lldiv                                             13     5      8     421
                                              4 COMRAM    13     5      8
 ---------------------------------------------------------------------------------
 (1) _I2C_HWini                                            0     0      0       0
 ---------------------------------------------------------------------------------
 (1) _I2C2_M_Poll                                          6     4      2     343
                                             12 COMRAM     6     4      2
                 _I2C2_M_ClearErrors
                  _I2C2_M_RecoverBus
                       _I2C2_M_Start
                        _I2C2_M_Stop
                   _I2C2_M_WriteByte
 ---------------------------------------------------------------------------------
 (2) _I2C2_M_RecoverBus                                    4     2      2      71
                                              8 COMRAM     4     2      2
                    _I2C2_M_BusReset
 ---------------------------------------------------------------------------------
 (3) _I2C2_M_BusReset                                      4     2      2      37
                                              4 COMRAM     4     2      2
 ---------------------------------------------------------------------------------
 (2) _I2C2_M_ClearErrors                                   0     0      0       0
 ---------------------------------------------------------------------------------
 (1) _FsScape_set_index_crc_SRAM                           8     4      4    1726
                                             27 COMRAM     8     4      4
                      _I2C_Mem_Write
 ---------------------------------------------------------------------------------
 (1) _FsScape_set_index_SRAM                               8     4      4    1726
                                             27 COMRAM     8     4      4
                      _I2C_Mem_Write
 ---------------------------------------------------------------------------------
 (2) _I2C_Mem_Write                                       18     6     12    1364
                                              9 COMRAM    18     6     12
                       _I2C2_M_Start
                        _I2C2_M_Stop
                   _I2C2_M_WriteByte
 ---------------------------------------------------------------------------------
 (1) _FsScape_get_index_crc_SRAM                          34    32      2    2070
                                             29 COMRAM    32    30      2
                       _I2C_Mem_Read
 ---------------------------------------------------------------------------------
 (1) _FsScape_get_index_SRAM                              34    32      2    2160
                                             29 COMRAM    32    30      2
                       _I2C_Mem_Read
 ---------------------------------------------------------------------------------
 (2) _I2C_Mem_Read                                        20     8     12    1701
                                              9 COMRAM    20     8     12
                    _I2C2_M_ReadByte
                     _I2C2_M_Restart
                       _I2C2_M_Start
                        _I2C2_M_Stop
                   _I2C2_M_WriteByte
 ---------------------------------------------------------------------------------
 (2) _I2C2_M_WriteByte                                     5     3      2      68
                                              4 COMRAM     5     3      2
 ---------------------------------------------------------------------------------
 (2) _I2C2_M_Stop                                          4     2      2      37
                                              4 COMRAM     4     2      2
 ---------------------------------------------------------------------------------
 (2) _I2C2_M_Start                                         4     2      2      37
                                              4 COMRAM     4     2      2
 ---------------------------------------------------------------------------------
 (3) _I2C2_M_Restart                                       4     2      2      37
                                              4 COMRAM     4     2      2
 ---------------------------------------------------------------------------------
 (3) _I2C2_M_ReadByte                                      5     3      2     105
                                              4 COMRAM     5     3      2
 ---------------------------------------------------------------------------------
 Estimated maximum stack depth 9
 ---------------------------------------------------------------------------------
 (Depth) Function   	        Calls       Base Space   Used Autos Params    Refs
 ---------------------------------------------------------------------------------
 (10) _INTERRUPT_InterruptManager                          2     2      0     240
                                              2 COMRAM     2     2      0
                           _TMR1_ISR
 ---------------------------------------------------------------------------------
 (11) _TMR1_ISR                                            0     0      0     240
                                NULL *
       _TMR1_DefaultInterruptHandler *
                    _TMR1_WriteTimer
                _increment_interrupt *
 ---------------------------------------------------------------------------------
 (12) _increment_interrupt                                 0     0      0       0
 ---------------------------------------------------------------------------------
 (12) _TMR1_WriteTimer                                     2     0      2     240
                                              0 COMRAM     2     0      2
 ---------------------------------------------------------------------------------
 (12) _TMR1_DefaultInterruptHandler                        0     0      0       0
 ---------------------------------------------------------------------------------
 (12) NULL(Fake)                                           0     0      0       0
 ---------------------------------------------------------------------------------
 Estimated maximum stack depth 12
 ---------------------------------------------------------------------------------

 Call Graph Graphs:

 _main (ROOT)
   _FsScape_get_index_SRAM
     _I2C_Mem_Read
       _I2C2_M_ReadByte
       _I2C2_M_Restart
       _I2C2_M_Start
       _I2C2_M_Stop
       _I2C2_M_WriteByte
   _FsScape_get_index_crc_SRAM
     _I2C_Mem_Read
   _FsScape_set_index_SRAM
     _I2C_Mem_Write
       _I2C2_M_Start
       _I2C2_M_Stop
       _I2C2_M_WriteByte
   _FsScape_set_index_crc_SRAM
     _I2C_Mem_Write
   _I2C2_M_BusReset
   _I2C2_M_Poll
     _I2C2_M_ClearErrors
     _I2C2_M_RecoverBus
       _I2C2_M_BusReset
     _I2C2_M_Start
     _I2C2_M_Stop
     _I2C2_M_WriteByte
   _I2C_HWini
   _I2C_ModuleStart
     ___lldiv
   _I2C_ModuleStop
   _SYSTEM_Initialize
     _EUSART1_Initialize
       _EUSART1_SetErrorHandler
       _EUSART1_SetFramingErrorHandler
       _EUSART1_SetOverrunErrorHandler
     _I2C1_Initialize
     _INTERRUPT_Initialize
     _OSCILLATOR_Initialize
     _PIN_MANAGER_Initialize
     _SPI2_Initialize
     _TMR1_Initialize
       _TMR1_SetInterruptHandler
   _TMR1_SetInterruptHandler
   _millis
   _printf
     _vfprintf
       _vfpfcnvrt
         _dtoa
           ___aldiv
           ___almod
           _abs
             ___almod (ARG)
           _pad
             _fputc
               _putch
                 _EUSART1_Write
             _fputs
               _fputc
         _fputc
         _xtoa
           _pad

 _INTERRUPT_InterruptManager (ROOT)
   _TMR1_ISR
     NULL(Fake) *
     _TMR1_DefaultInterruptHandler *
     _TMR1_WriteTimer *
     _increment_interrupt *

 Address spaces:
Name               Size   Autos  Total    Cost      Usage
BIGRAM             F37      0       0      53        0.0%
EEDATA             400      0       0       0        0.0%
BITBANK14          100      0       0      34        0.0%
BANK14             100      0       0      32        0.0%
BITBANK13          100      0       0      30        0.0%
BANK13             100      0       0      31        0.0%
BITBANK12          100      0       0      28        0.0%
BANK12             100      0       0      29        0.0%
BITBANK11          100      0       0      26        0.0%
BANK11             100      0       0      27        0.0%
BITBANK10          100      0       0      24        0.0%
BANK10             100      0       0      25        0.0%
BITBANK9           100      0       0      22        0.0%
BANK9              100      0       0      23        0.0%
BITBANK8           100      0       0      20        0.0%
BANK8              100      0       0      21        0.0%
BITBANK7           100      0       0      18        0.0%
BANK7              100      0       0      19        0.0%
BITBANK6           100      0       0      16        0.0%
BANK6              100      0       0      17        0.0%
BITBANK5           100      0       0      14        0.0%
BANK5              100      0       0      15        0.0%
BITBANK4           100      0       0      12        0.0%
BANK4              100      0       0      13        0.0%
BITBANK3           100      0       0      10        0.0%
BANK3              100      4       4      11        1.6%
BITBANK2           100      0       0       8        0.0%
BANK2              100      0     100       9      100.0%
BITBANK1           100      0       0       6        0.0%
BANK1              100     FE     100       7      100.0%
BITBANK0            A0      0       0       4        0.0%
BANK0               A0     24      9F       5       99.4%
BITCOMRAM           5E      0       0       0        0.0%
COMRAM              5E     56      5A       1       95.7%
BITBANK15           38      0       0      35        0.0%
BANK15              38      0       0      36        0.0%
BITBIGSFRlllhl      26      0       0      52        0.0%
BITBIGSFRhl         1D      0       0      38        0.0%
BITBIGSFRlllhhh     12      0       0      50        0.0%
BITBIGSFRhh          D      0       0      37        0.0%
BITBIGSFRlhhll       C      0       0      41        0.0%
BITBIGSFRlllhhl      9      0       0      51        0.0%
BITBIGSFRlhlhh       7      0       0      42        0.0%
BITBIGSFRlllhhh      6      0       0      49        0.0%
BITBIGSFRlhllhh      6      0       0      43        0.0%
BITBIGSFRllhh        6      0       0      47        0.0%
BITBIGSFRllhl        6      0       0      48        0.0%
BITBIGSFRlhllhh      2      0       0      44        0.0%
BITBIGSFRlhhlhl      2      0       0      40        0.0%
BITBIGSFRlhllhl      2      0       0      45        0.0%
BITBIGSFRlhhh        1      0       0      39        0.0%
BITBIGSFRlhlll       1      0       0      46        0.0%
BIGSFR               0      0       0     200        0.0%
BITSFR_1             0      0       0     200        0.0%
SFR_1                0      0       0     200        0.0%
BITSFR               0      0       0     200        0.0%
SFR                  0      0       0     200        0.0%
STACK                0      0       0       2        0.0%
NULL                 0      0       0       0        0.0%
ABS                  0      0     2FD      33        0.0%
DATA                 0      0     2FD       3        0.0%
CODE                 0      0       0       0        0.0%


Microchip Technology PIC18 Macro Assembler V2.41 build 20230208172133 
Symbol Table                                                                                   Tue Mar 26 13:20:08 2024

                       __end_of_I2C_ModuleStart 1634                          I2C_Mem_Read@DevAddress 0018  
                       _fsscape_SRAM_index_addr 0096                                             l201 1820  
                                           l125 1980                                             l231 19F0  
                                           l128 19DA                                             l225 1984  
                                           l243 1A0E                                             l155 18C4  
                                           l228 1996                                             l501 19AA  
                                           l246 1A04                                             l262 1A2A  
                                           l249 1A18                                             l361 18EE  
                                           l391 19FA                                             l752 19BC  
                                           l840 04AA                                             l841 05AE  
                                           l842 05AE                               ??_I2C2_M_BusReset 0007  
                              ??_I2C2_M_Restart 0007                                 _timer1ReloadVal 0059  
                                           _abs 17A2                                             _pad 147C  
                                           tosl 0FFD                                             wreg 0FE8  
                                    _TXSTA1bits 0FAC                               ??_I2C2_M_ReadByte 0007  
                          _I2C1_DO_RX_NACK_STOP 0000                           I2C_Mem_Read@MemAdress 000A  
                        _FsScape_set_index_SRAM 1716                                            l1040 1632  
                                          l1121 103E                                            l1201 1332  
                                          l1122 0FD4                                            l1202 12E6  
                                          l1123 100E                                            l1051 11D6  
                                          l1035 1A26                                            l1043 1A2E  
                                          ?_abs 000F                                            l1116 0F8A  
                                          l1117 0F8C                                            l1205 12F4  
                                          l1301 1714                                            l1061 121A  
                                          l1126 101C                                            l1118 0FC6  
                                          l1150 15AE                                            l1206 1310  
                                          l1070 1272                                            l1062 121C  
                                          l1054 128C                                            l1142 1852  
                                          l1127 1038                                            l1063 1220  
                                          l1143 185C                                            l2111 037E  
                                          l1160 145E                                            l1232 0A64  
                                          l1072 1274                                            l1064 1222  
                                          l2032 193C                                            l1233 096C  
                                          l1073 1276                                            l1065 1246  
                                          l1049 11D4                                            l1146 15A0  
                                          l1154 13FA                                            l1082 1A20  
                                          l1074 127A                                            l1058 1208  
                                          l1155 147A                                            l1075 127C  
                                          l1067 1248                                            l2131 17D8  
                                          l1076 1280                                            l1068 124A  
                                          l1149 15D2                                            l1157 1450  
                                          l1165 1564                                            l1166 154E  
                                          l1078 1282                                            l1086 113E  
                                          l2134 17E0                                            l2054 149E  
                                          l1247 092A                                            l2063 0606  
                                          l2127 1682                                            l1248 07BE  
                                          l1088 11D2                                            l1345 1962  
                                          l1433 0CA8                                            l2065 060E  
                                          l2081 0A82                                            l2146 1108  
                                          l2154 17A0                                            l2058 14F4  
                                          l2066 0654                                            l2083 0A8A  
                                          l1285 0E84                                            l1381 13C6  
                                          l2077 077C                                            l2093 0B9C  
                                          l1446 0F70                                            l1288 175C  
                                          l1298 0D96                                            l1388 13D6  
                                          l7000 1A06                                            l7010 11E0  
                                          l7002 19FC                                            l7100 132A  
                                          l7012 11EE                                            l7004 1A10  
                                          l7022 1226                                            l7006 19F2  
                                          ?_pad 0017                                            l7040 13EE  
                                          l7112 1516                                            l7104 14F6  
                                          l7032 1284                                            l7024 122C  
                                          l7016 11FA                                            l7008 11D8  
                                          l7200 010C                                            l7130 1574  
                                          l7050 1418                                            l7122 155C  
                                          l7114 1522                                            l7106 1508  
                                          l7026 1258                                            l7018 1202  
                                          l7202 012A                                            l7210 01B6  
                                          l7140 15BE                                            l7132 1578  
                                          l7060 146C                                            l7052 1424  
                                          l7044 1408                                            l7036 13D8  
                                          l7116 1526                                            l7108 150A  
                                          l7028 1266                                            l7300 18C6  
                                          l7220 023E                                            l7212 01E0  
                                          l7204 014C                                            l7150 0F84  
                                          l7134 1594                                            l7126 1566  
                                          l7054 1428                                            l7046 140C  
                                          l7038 13EA                                            l7118 1542  
                                          l7070 1290                                            l7310 18EA  
                                          l7302 18D2                                            l7230 02F4  
                                          l7222 0276                                            l7214 01FC  
                                          l7206 0182                                            l7152 0F8E  
                                          l7144 15CA                                            l7128 1568  
                                          l7056 1444                                            l7080 12BA  
                                          l7072 129E                                            l7320 181A  
                                          l7312 17E2                                            l7304 18DA  
                                          l7162 0FD6                                            l7154 0F9A  
                                          l7138 15BC                                            l7066 1472  
                                          l7090 1304                                            l7082 12BE  
                                          l7410 0A42                                            l7322 1A1A  
                                          l7330 184A                                            l7314 17F6  
                                          l7306 18DC                                            l7226 02AA  
                                          l7218 021C                                            l7242 0354  
                                          l7172 102A                                            l7164 0FE2  
                                          l7156 0F9E                                            l7148 0F74  
                                          l7084 12DA                                            l7076 12AA  
                                          l7332 1854                                            l7324 1822  
                                          l7316 1802                                            l7308 18DE  
                                          l7236 0314                                            l7228 02D4  
                                          l7180 0076                                            l7174 102C  
                                          l7166 0FE6                                            l7158 0FBA  
                                          l7094 131E                                            l7078 12AE  
                                          l7510 08D0                                            l7502 0880  
                                          l7430 07B0                                            l7422 0780  
                                          l7406 0A28                                            l7350 0970  
                                          l7342 0948                                            l7326 1824  
                                          l7318 180E                                            l7238 0342  
                                          l7190 00BA                                            l7182 0084  
                                          l7168 1002                                            l7088 1302  
                                          l7512 08DE                                            l7504 088C  
                                          l7440 07E6                                            l7432 07B2  
                                          l7424 078E                                            l7408 0A2C  
                                          l7352 097E                                            l7344 095E  
                                          l7336 092E                                            l7328 1830  
                                          l7600 15FC                                            l7280 1A28  
                                          l6800 108C                                            l7192 00C2  
                                          l7184 0092                                            l7522 08EE  
                                          l7506 08B0                                            l7442 07EA  
                                          l7450 07F8                                            l7418 0A5C  
                                          l7354 0994                                            l7346 0960  
                                          l7338 093C                                            l7610 110C  
                                          l7602 1602                                            l7282 1998  
                                          l7290 19BA                                            l6802 10C2  
                                          l6810 177C                                            l8250 01CA  
                                          l7194 00CA                                            l7186 0096  
                                          l7178 0050                                            l7508 08C2  
                                          l7524 08F2                                            l7452 0806  
                                          l7460 080E                                            l7444 07EC  
                                          l7436 07C2                                            l7428 079A  
                                          l7356 0998                                            l7364 09A6  
                                          l7620 1146                                            l7612 1110  
                                          l7540 1344                                            l7604 1604  
                                          l7284 19A8                                            l7292 189A  
                                          l6820 0BC0                                            l6812 1780  
                                          l6900 14AA                                            l8252 02BE  
                                          l7188 00A6                                            l7700 03B0  
                                          l7534 0922                                            l7526 0908  
                                          l7470 082A                                            l7438 07D0  
                                          l7366 09B4                                            l7374 09BC  
                                          l7358 099A                                            l7622 115C  
                                          l7614 111E                                            l7550 1386  
                                          l7542 135A                                            l7606 1608  
                                          l7294 18A6                                            l7286 19AC  
                                          l6830 0BF6                                            l6822 0BC4  
                                          l6814 0B9E                                            l6910 17BC  
                                          l6806 175E                                            l6902 14BE  
                                          l8254 0334                                            l7198 00D2  
                                          l7710 03C6                                            l7702 03B4  
                                          l7480 0846                                            l7384 09D8  
                                          l7640 11C0                                            l7632 119E  
                                          l7624 1180                                            l7616 1122  
                                          l7552 13A4                                            l7544 1362  
                                          l7608 1630                                            l7296 18C2  
                                          l7288 19B8                                            l6840 0C38  
                                          l6832 0C0C                                            l6824 0BD2  
                                          l6816 0BA2                                            l6808 176A  
                                          l6904 14C2                                            l6920 05FA  
                                          l6912 05B6                                            l8248 00E6  
                                          l7560 1634                                            l7720 03FA  
                                          l7712 03C8                                            l7704 03B6  
                                          l7490 0860                                            l7650 0D98  
                                          l7394 09F4                                            l7634 11B4  
                                          l7626 1192                                            l7618 1138  
                                          l7554 13B4                                            l7546 136E  
                                          l7538 1334                                            l7298 19CE  
                                          l7570 1964                                            l6842 0C56  
                                          l6834 0C14                                            l6850 0C78  
                                          l6826 0BE2                                            l6818 0BB0  
                                          l6906 14E0                                            l6930 0648  
                                          l6922 0616                                            l6914 05CA  
                                          l7562 1640                                            l7730 043E  
                                          l7722 040A                                            l7714 03C8  
                                          l7706 03C2                                            l7492 0864  
                                          l7652 0D98                                            l7396 0A00  
                                          l7644 11CC                                            l7556 13B6  
                                          l7548 137C                                            l7580 1978  
                                          l7572 1968                                            l6852 0C88  
                                          l6844 0C66                                            l6836 0C20  
                                          l6828 0BE6                                            l6860 0E8A  
                                          l6908 17A2                                            l6940 06AC  
                                          l6932 0650                                            l6924 0626  
                                          l6916 05DA                                            l7564 165C  
                                          l7740 048E                                            l7732 0442  
                                          l7724 041C                                            l7716 03DA  
                                          l7708 03C4                                            l7654 0D98  
                                          l7662 1716                                            l7670 16DE  
                                          l7558 13C0                                            l7582 197C  
                                          l7574 196C                                            l6854 0C98  
                                          l6846 0C68                                            l6838 0C2E  
                                          l6870 0ECA                                            l6862 0E98  
                                          l6790 19EA                                            l6950 071C  
                                          l6942 06B2                                            l6934 065C  
                                          l6926 062C                                            l6918 05EA  
                                          l7566 167A                                            l7750 04EA  
                                          l7742 049E                                            l7734 0456  
                                          l7726 042E                                            l7718 03EA  
                                          l7656 0DD6                                            l7680 0CE8  
                                          l7664 1726                                            l7592 1A22  
                                          l7576 1970                                            l7584 193E  
                                          l6848 0C72                                            l6880 0F20  
                                          l6872 0EE0                                            l6864 0EA8  
                                          l6792 1040                                            l6952 0736  
                                          l6944 06B8                                            l6936 0664  
                                          l6928 063C                                            l7760 0544  
                                          l7752 04FC                                            l7744 04B6  
                                          l7736 0462                                            l7728 0432  
                                          l7658 0DE8                                            l7682 0CFA  
                                          l7674 0CAA                                            l7594 15D4  
                                          l7578 1974                                            l6890 0F60  
                                          l6882 0F30                                            l6874 0EE8  
                                          l6866 0EAC                                            l6858 0E86  
                                          l6786 1984                                            l6794 1052  
                                          l6954 0746                                            l6938 066A  
                                          l6946 06EC                                            l6970 0AA2  
                                          l6962 0A66                                            l7586 1918  
                                          l7762 0550                                            l7754 0510  
                                          l7746 04C2                                            l7738 0476  
                                          l7690 0392                                            l7676 0CAA  
                                          l7668 16CE                                            l7596 15D8  
                                          l6884 0F3A                                            l6876 0EF4  
                                          l6868 0EBA                                            l6788 1992  
                                          l6796 1064                                            l6956 074C  
                                          l6948 0706                                            l6980 0ADA  
                                          l6972 0AA8                                            l6964 0A76  
                                          l7588 1920                                            l7764 0576  
                                          l7756 051C                                            l7748 04DE  
                                          l7692 039E                                            l7678 0CAA  
                                          l7598 15DC                                            l7686 1A2C  
                                          l6878 0F02                                            l6886 0F40  
                                          l6798 106E                                            l6894 147C  
                                          l6958 075C                                            l6982 0ADE  
                                          l6974 0AAE                                            l6990 0B30  
                                          l6966 0A92                                            l7766 0582  
                                          l7758 0528                                            l7694 03A2  
                                          l6888 0F50                                            l6896 148A  
                                          l6992 0B4C                                            l6984 0AEE  
                                          l6976 0ABE                                            l6968 0A9A  
                                          l7768 05AA                                            l7696 03A8  
                                          l7688 0380                                            l6898 1496  
                                          l6994 0B62                                            l6986 0AF4  
                                          l6978 0ACE                                            l7698 03AC  
                                          l6996 0B7C                                            l6988 0AFA  
                                          STR_1 FFED                                            STR_2 FFD5  
                                          STR_3 FED5                                            STR_4 FEAC  
                                          STR_5 FE80                                            STR_6 FF47  
                                          STR_7 FEFE                                            STR_8 FF86  
                                          STR_9 FF47                                            _LATA 0F89  
                                          _LATB 0F8A                                            _LATC 0F8B  
                                          u5000 102A                                            u5001 1026  
                                          u5010 0076                                            u5011 0072  
                                          u5100 09D4                                            u5020 012A  
                                          u5101 09D0                                            u5021 0126  
                                          u5110 09F0                                            u5030 0148  
                                          u5111 09EC                                            u5031 0144  
                                          u5200 0842                                            u5120 0A24  
                                          u4400 108C                                            u5040 023A  
                                          u5201 083E                                            u5121 0A20  
                                          u4401 1088                                            u5041 0236  
                                          u5210 085C                                            u5130 0A42  
                                          u5050 184A                                            u4410 10C2  
                                          u5211 0858                                            u5131 0A3E  
                                          u5051 1846                                            u4411 10BE  
                                          u5220 087C                                            u5140 0A58  
                                          u5060 093C                                            u4500 0EBA  
                                          u4420 17A0                                            u5300 167A  
                                          u5221 0878                                            u5141 0A54  
                                          u5061 0938                                            u4501 0EB6  
                                          u4421 179C                                            u5301 1676  
                                          u5230 08B0                                            u5150 078E  
                                          u5070 095E                                            u5310 15FC  
                                          u4430 0BB0                                            u4510 0EE0  
                                          u5231 08AC                                            u5151 078A  
                                          u5071 095A                                            u5311 15F8  
                                          u4431 0BAC                                            u4511 0EDC  
                                          u5240 08DE                                            u5160 07B0  
                                          u5080 0994                                            u5320 111E  
                                          u4440 0BD2                                            u4520 0F02  
                                          u4600 05DA                                            u5241 08DA  
                                          u5161 07AC                                            u5081 0990  
                                          u5321 111A                                            u4441 0BCE  
                                          u4521 0EFE                                            u4601 05D6  
                                          u5401 038A                                            u5250 0908  
                                          u5170 07E6                                            u5090 09B4  
                                          u5330 1138                                            u4450 0C0C  
                                          u4530 0F20                                            u4370 1992  
                                          u4610 05FA                                            u5251 0904  
                                          u5171 07E2                                            u5091 09B0  
                                          u5331 1134                                            u4451 0C08  
                                          u4531 0F1C                                            u4371 198E  
                                          u4611 05F6                                            u5411 0398  
                                          u5260 091E                                            u5180 0806  
                                          u5340 115C                                            u4460 0C2E  
                                          u4540 0F50                                            u4380 1052  
                                          u4620 0626                                            u4700 0B1A  
                                          u5420 048E                                            u5261 091A  
                                          u5181 0802                                            u5341 1158  
                                          u4461 0C2A                                            u4541 0F4C  
                                          u4381 104E                                            u4621 0622  
                                          u5421 048A                                            u5190 0826  
                                          u5350 1180                                            u5270 135A  
                                          u4470 0C56                                            u4390 1064  
                                          u4550 148A                                            u4630 063C  
                                          u4710 0B4C                                            u5191 0822  
                                          u5351 117C                                            u5271 1356  
                                          u4471 0C52                                            u4391 1060  
                                          u4551 1486                                            u4631 0638  
                                          u4711 0B48                                            u4800 1408  
                                          u5360 1192                                            u5280 137C  
                                          u4480 0C88                                            u4560 14E0  
                                          u4640 0706                                            u4720 0B62  
                                          u4801 1404                                            u5361 118E  
                                          u5281 1378                                            u4481 0C84  
                                          u4561 14DC                                            u4641 0702  
                                          u4721 0B5E                                            u4705 0B10  
                                          u4810 1444                                            u5370 11B4  
                                          u5290 13A4                                            u4490 0E98  
                                          u4570 17BC                                            u4650 071C  
                                          u4730 0B7C                                            u4811 1440  
                                          u5371 11B0                                            u5291 13A0  
                                          u4491 0E94                                            u4571 17B8  
                                          u4651 0718                                            u4731 0B78  
                                          u4820 145E                                            u4900 1542  
                                          u5380 0DE8                                            u4740 11EE  
                                          u4660 0736                                            u4580 05C6  
                                          u4821 145A                                            u4901 153E  
                                          u5381 0DE4                                            u4741 11EA  
                                          u4661 0732                                            u4581 05C0  
                                          u4830 146C                                            u4910 155C  
                                          u5390 0CFA                                            u4750 1216  
                                          u4670 0746                                            u4590 05C8  
                                          u4831 1468                                            u4911 1558  
                                          u5391 0CF6                                            u4751 1212  
                                          u4671 0742                                            u4920 1594  
                                          u4840 129E                                            u4760 1246  
                                          u4680 0A76                                            u4921 1590  
                                          u4841 129A                                            u4761 1242  
                                          u4681 0A72                                            u4930 15AE  
                                          u4850 12DA                                            u4770 1258  
                                          u4690 0ABE                                            u4931 15AA  
                                          u4851 12D6                                            u4771 1254  
                                          u4691 0ABA                                            u4940 15BC  
                                          u4860 12F4                                            u4780 1266  
                                          u4941 15B8                                            u4861 12F0  
                                          u4781 1262                                            u4950 0F84  
                                          u4790 13EA                                            u4870 1302  
                                          u4951 0F80                                            u4791 13E6  
                                          u4871 12FE                                            u4960 0FBA  
                                          u4880 131E                                            u4961 0FB6  
                                          u4881 131A                              _I2C2_M_ClearErrors 1A1A  
                                          u4970 0FD4                                            u4890 1508  
                                          u4971 0FD0                                            u4891 1504  
                                          u4980 1002                                            u4981 0FFE  
                                          u4990 101C                                            u4991 1018  
                                          u5847 11DA                                            _TMR1 0FCE  
                                          _WPUB 0F61                                   _EUSART1_Write 1982  
                                          abs@a 000F                                            _dbuf 00AC  
                                          _main 0380                                            _dtoa 05B6  
                                          _prec 00A0                                            pad@i 001E  
                                          pad@p 001B                                            fsr1h 0FE2  
                                          fsr2h 0FDA                                            indf2 0FDF  
                                          fsr1l 0FE1                                            pad@w 0020  
                                          fsr2l 0FD9                                            btemp 005B  
                                          _xtoa 0A66                          I2C_Mem_Read@MemAddSize 000C  
                                          start 004C                             ?_I2C2_M_ClearErrors 0001  
                    ??_TMR1_SetInterruptHandler 0007                                    ___param_bank 0000  
                                  main@adressme 00E8                                      _FsScape_CS 00A4  
                           _increment_interrupt 19BE                                           ??_abs 0011  
                                         ??_pad 001D                           I2C_Mem_Read@SlaveAddr 0019  
                 __end_of_OSCILLATOR_Initialize 19DC                                 __end_of___aldiv 0CAA  
                               __end_of___almod 0F72                                           ?_main 0001  
                                         ?_dtoa 0022                                           STR_10 FF25  
                                         STR_11 FFBD                                           STR_12 FF69  
                                         STR_13 FFA3                                 __end_of___lldiv 13D8  
                                         ?_xtoa 0022                                           _T1CON 0FCD  
                                         i2l271 0040                                           i2l375 1916  
                                         i2l394 1A30                                           i2l388 1898  
                    __end_of_i2c1_fsmStateTable FE75                                    vfpfcnvrt@fmt 0037  
                                         _TMR1H 0FCF                                           _TMR1L 0FCE  
                                         _TRISA 0F92                                           _TRISB 0F93  
                                         _TRISC 0F94                            ??_I2C2_M_ClearErrors 0005  
                                  _I2C_Mem_Read 077E                     ?_FsScape_get_index_crc_SRAM 001E  
                   ?_FsScape_set_index_crc_SRAM 001C                          _FsScape_i2c_FLASH_addr 00A8  
                             ??_I2C1_Initialize 0005                                __end_of_TMR1_ISR 189A  
                                         _flags 00A6                               __end_of_I2C_HWini 1A28  
                                         _fputc 1040                                           _fputs 175E  
                          ?_increment_interrupt 0001                                           pad@fp 0017  
                                         _width 009E                                           _putch 19E8  
                                         dtoa@d 0024                                           dtoa@i 002F  
                                         dtoa@p 002A                                           dtoa@s 002E  
                                         dtoa@w 002C                                  ?_EUSART1_Write 0001  
                       __end_of_TMR1_Initialize 18F0                                           pclath 0FFA  
                                         pclatu 0FFB                                           tablat 0FF5  
                                         plusw1 0FE3                                           plusw2 0FDB  
                                         ttemp5 005C                                           ttemp6 005F  
                                         ttemp7 0063                                           status 0FD8  
                                         wtemp8 005C                                           xtoa@c 0034  
                                         xtoa@d 0024                                           xtoa@i 0032  
                                         xtoa@p 0030                                           xtoa@w 002C  
                             ?_I2C2_M_WriteByte 0005              _EUSART1_DefaultFramingErrorHandler 0000  
                               _TMR1_WriteTimer 18F0                              ??_I2C2_M_WriteByte 0007  
                               __initialization 1684                      __end_of_EUSART1_Initialize 1822  
                                  __end_of_main 05B6                                    __end_of_dtoa 077E  
                             _I2C2_M_RecoverBus 1822                                ?_I2C_ModuleStart 0012  
                                  __end_of_xtoa 0B9E                                   main@adressme2 00EC  
                                 main@adressme3 00E0                              ?_I2C2_M_RecoverBus 0009  
                   ?_INTERRUPT_InterruptManager 0001                                          ??_main 0056  
                                        ??_dtoa 0028                                          ??_xtoa 0028  
                                 __activetblptr 0003             FsScape_set_index_SRAM@address_value 001C  
                           ??_I2C2_M_RecoverBus 000B                           ??_increment_interrupt 0001  
                            I2C_Mem_Write@pData 000E                                          ?_fputc 0007  
                                        ?_fputs 0010                                          _ANSELA 0F38  
                                        ?_putch 0001                                          _ANSELB 0F39  
                                        _ANSELC 0F3A                        ??_FsScape_get_index_SRAM 0020  
                                        _T1GCON 0FCC                         _FsScape_i2c_EEPROM_addr 00A9  
                       TMR1_WriteTimer@timerVal 0001                                   main@bus_reset 00DE  
                                        i2l1351 19CC                                          i2l5060 1908  
                                        i2l5052 18F0                                          i2l5054 18FE  
                                        i2l5062 190E                                          i2l5064 1912  
                                        i2l5056 1900                                          i2l5058 1904  
                                        i2l5284 19BE                                          i2l5372 185E  
                                        i2l5374 1860                                          i2l5376 186C  
                                        i2l5378 1880                                          i2l5760 003C  
                                        i2l5754 0012                                          i2l5756 0020  
                                        i2l5758 002E                                          _RCREG1 0FAE  
                                        _RCSTA1 0FAB                                          _OSCCON 0FD3  
                                        _SPBRG1 0FAF                                          _TXREG1 0FAD  
                                        _TXSTA1 0FAC                     FsScape_get_index_SRAM@value 003C  
                              _I2C1_DO_TX_EMPTY 0000                                   _I2C_Mem_Write 092C  
                     __end_of_I2C2_M_RecoverBus 185E            __end_of_TMR1_DefaultInterruptHandler 1A32  
                  _TMR1_DefaultInterruptHandler 1A30                                    vfprintf@cfmt 004C  
                                     ??___aldiv 000D                                       ??___almod 000D  
                                     ??___lldiv 000D                              I2C2_M_Poll@DevAddr 000F  
                      ?_EUSART1_SetErrorHandler 0005                                          _millis 193E  
                                        clear_0 16AA                                          clear_1 16B6  
                                        isa$std 0001                                          _printf 1918  
                                        pad@buf 0019                ??_EUSART1_SetOverrunErrorHandler 0007  
               ?_EUSART1_SetOverrunErrorHandler 0005                                          dtoa@fp 0022  
                              I2C_Mem_Read@Size 0010                                   main@valoresrx 0100  
                                 main@valorestx 00CC                           _I2C1_DO_SEND_ADR_READ 0000  
                                        fputc@c 0007                                          fputs@c 0014  
                                        fputs@i 0015                                          fputs@s 0010  
                              I2C2_M_BusReset@i 0007                                    __mediumconst FE54  
                                        tblptrh 0FF7                                          tblptrl 0FF6  
                                        tblptru 0FF8                                __end_of_vfprintf 1684  
                               ??_EUSART1_Write 0005        TMR1_SetInterruptHandler@InterruptHandler 0005  
                       __end_of_TMR1_WriteTimer 1918                                          xtoa@fp 0022  
                       _I2C1_DO_RX_NACK_RESTART 0000                         I2C2_M_RecoverBus@status 000B  
            FsScape_get_index_crc_SRAM@_address 0038                                ?_TMR1_Initialize 0001  
                             _SYSTEM_Initialize 1964                                      __accesstop 0060  
                       __end_of__initialization 16C4                                   ??_I2C2_M_Poll 000F  
                                 ??_I2C2_M_Stop 0007                  FsScape_get_index_SRAM@_address 0038  
                            ?_SYSTEM_Initialize 0001                                   ___rparam_used 0001  
                                ?_I2C_Mem_Write 000A                                I2C2_M_ReadByte@t 0008  
                       _rdBlkRegCompleteHandler 0000                                 _I2C2_M_BusReset 11D4  
                    __end_of_spi2_configuration FE79                                  __pcstackCOMRAM 0001  
                                  __pidataBANK0 19DC                             ??_SYSTEM_Initialize 0007  
                                     ?_TMR1_ISR 0001                 fp__TMR1_DefaultInterruptHandler 0000  
                 ?_TMR1_DefaultInterruptHandler 0001                                 _I2C2_M_ReadByte 0F72  
                                 __end_of_fputc 110A                                   __end_of_fputs 17A2  
                FsScape_set_index_SRAM@_address 0020                                   __end_of_putch 19F2  
                            _spi1_configuration FE79                         ?_FsScape_set_index_SRAM 001C  
               FsScape_get_index_crc_SRAM@value 003C           __end_of_FsScape_FLASH_interface_style FE7E  
                 _FsScape_FLASH_interface_style FE7D                                         ??_fputc 000B  
                     __end_of_SYSTEM_Initialize 1982                                         ??_fputs 0014  
                                       ??_putch 0006                               ??_SPI2_Initialize 0005  
                                    __pbssBANK0 0060                                      __pbssBANK2 0200  
                       I2C_Mem_Write@DevAddress 0016             FsScape_set_index_crc_SRAM@crc_value 001C  
                                I2C_Mem_Write@i 001A                            _timer_overflow_count 008A  
                         _rd1RegCompleteHandler 0000                               _I2C1_DO_SEND_STOP 0000  
                         _wr1RegCompleteHandler 0000                 __end_of_EUSART1_SetErrorHandler 1A1A  
                 FsScape_get_index_SRAM@address 001E                             __end_of_I2C2_M_Poll 11D4  
                           __end_of_I2C2_M_Stop 1566                                      ??_TMR1_ISR 0003  
                               _I2C1_Initialize 1998                                         ?_millis 0005  
                __end_of_FsScape_set_index_SRAM 175E                                         ?_printf 004E  
        __end_of_EUSART1_SetFramingErrorHandler 1A10                  _EUSART1_SetFramingErrorHandler 1A06  
                           I2C_Mem_Write@retval 0018                                         _OSCCON2 0FD2  
                       I2C_Mem_Write@MemAddSize 000C                                         _OSCTUNE 0F9B  
                                       _SPBRGH1 0FB0                                         _SSP1ADD 0FC8  
                                       _SSP2ADD 0F6E                                         _SSP1BUF 0FC9  
                                       _SSP2BUF 0F6F                                ?_TMR1_WriteTimer 0001  
                       __end_of_I2C2_M_BusReset 128E                                       _I2C_HWini 1A22  
                            _i2c1_fsmStateTable FE55                                 ??_I2C_Mem_Write 0016  
                       __end_of_I2C2_M_ReadByte 1040                                         __Hparam 0000  
                                       __Lparam 0000                                         ___aldiv 0B9E  
                                       ___almod 0E86                                         ___lldiv 1334  
                        _FsScape_get_index_SRAM 0D98                                       ?_vfprintf 0046  
                                       __micros 0092                                         __pcinit 1684  
                                       __millis 008E                                         __ramtop 1000  
                                       __ptext0 0380                                         __ptext1 1918  
                                       __ptext2 1634                                         __ptext3 0050  
                                       __ptext4 0A66                                         __ptext5 05B6  
                                       __ptext6 147C                                         __ptext7 175E  
                                       __ptext8 1040                                         __ptext9 19E8  
                ??_TMR1_DefaultInterruptHandler 0001                                       _T1CONbits 0FCD  
                         _OSCILLATOR_Initialize 19CE                                ___aldiv@dividend 0005  
                            _EUSART1_Initialize 17E2                        ??_PIN_MANAGER_Initialize 0005  
                     ?_TMR1_SetInterruptHandler 0005                            end_of_initialization 16C4  
                                _I2C_ModuleStop 1A2C                                   ?_I2C2_M_Start 0005  
                             I2C_Mem_Read@pData 000E                             ?_EUSART1_Initialize 0001  
                                    ?_I2C_HWini 0001                                         fputc@fp 0009  
                   _EUSART1_OverrunErrorHandler 01FE                                         fputs@fp 0012  
                        _I2C1_DO_SEND_ADR_WRITE 0000                                         millis@m 0009  
                                   _I2C2_M_Poll 110A                                     _I2C2_M_Stop 14F6  
                       __end_of_I2C1_Initialize 19AC                                 ___lldiv@divisor 0009  
                               ___lldiv@counter 0011                                     _I2C1_Status 0060  
                             __end_of_vfpfcnvrt 0380                                ___aldiv@quotient 000F  
                                       postdec1 0FE5                                         postdec2 0FDD  
                                       postinc0 0FEE                                         postinc1 0FE6  
                                       postinc2 0FDE                                vfpfcnvrt@convarg 003F  
                                    ??_vfprintf 004C                            ??_EUSART1_Initialize 0007  
                    _I2C1_DO_SEND_RESTART_WRITE 0000                                       _PORTCbits 0F82  
                   __end_of_increment_interrupt 19CE                                       _TRISBbits 0F93  
                                     _TRISCbits 0F94                          __end_of_I2C_ModuleStop 1A30  
                                ??_I2C2_M_Start 0007                             EUSART1_Write@txData 0005  
                                    main@check1 00E4                                      main@check2 0300  
                                    main@check3 00D7                                ?_I2C2_M_BusReset 0005  
                                    main@valor2 00DB                                ?_I2C2_M_ReadByte 0005  
                  __end_of_INTERRUPT_Initialize 1A2C                                     vfpfcnvrt@ap 0039  
                                   vfpfcnvrt@cp 0044                                     vfpfcnvrt@fp 0035  
                                _I2C1_DO_RX_ACK 0000                          ?_OSCILLATOR_Initialize 0001  
                                __end_of_millis 1964                                 _SPI2_Initialize 19AC  
                                __end_of_printf 193E                              _spi2_configuration FE75  
                           start_initialization 1684                                     __end_of_abs 17E2  
                                   __end_of_pad 14F6                                 ?_I2C_ModuleStop 0001  
                                   putch@txData 0006                           __end_of_EUSART1_Write 1998  
                                   ??_I2C_HWini 0005                               I2C_Mem_Write@Size 0010  
                                 _FsScape_CSbit 00A2                                ?_I2C1_Initialize 0001  
                                   vfprintf@fmt 0048                     I2C_ModuleStart@clock_output 0012  
                                   __pdataBANK0 00F0                                        ??_millis 0009  
                                      ??_printf 0054                                _I2C2_M_WriteByte 128E  
                         _FsScape_i2c_SRAM_addr 00AA                                   ?_I2C_Mem_Read 000A  
                                   __pbssCOMRAM 0057                            _I2C1_DO_SEND_RESTART 0000  
                                 __pcstackBANK0 00CC                                   __pcstackBANK1 0100  
                                 __pcstackBANK3 0300                               I2C2_M_Poll@retval 0011  
                  ??_FsScape_get_index_crc_SRAM 0020              FsScape_set_index_crc_SRAM@_address 0020  
                  ??_FsScape_set_index_crc_SRAM 0020                               ??_I2C_ModuleStart 0016  
                                _I2C2_M_Restart 1566                ??_EUSART1_SetFramingErrorHandler 0007  
               ?_EUSART1_SetFramingErrorHandler 0005                                   I2C_Mem_Read@i 001A  
                                     __pnvBANK0 00FB                                       __pnvBANK1 01FE  
                                     __pnvBANK2 02FE                           _rd2RegCompleteHandler 0000  
                        _PIN_MANAGER_Initialize 189A                                 I2C2_M_Restart@t 0007  
                         _wr2RegCompleteHandler 0000                                       _dtoa$3496 0028  
                       ?_FsScape_get_index_SRAM 001E            __end_of_FsScape_SRAM_interface_style FE80  
                  _FsScape_SRAM_interface_style FE7F                                       __pintcode 0008  
              __end_of_TMR1_SetInterruptHandler 19FC                                   __pmediumconst FE54  
                                      ?___aldiv 0005                         __end_of_SPI2_Initialize 19BE  
                                      ?___almod 0005                          I2C2_M_ReadByte@ACKflag 0007  
                                      ?___lldiv 0005                            __end_of_I2C2_M_Start 147C  
                  ??_INTERRUPT_InterruptManager 0003                                ___almod@dividend 0005  
                          I2C_Mem_Write@Timeout 0012                          I2C_Mem_Write@MemAdress 000A  
                                ??_I2C_Mem_Read 0016                                        _BAUDCON1 0FB8  
            _EUSART1_DefaultOverrunErrorHandler 0000                            _EUSART1_ErrorHandler 02FE  
                                      _AT45dbxx 0084                                        _I2Cflags 0057  
                       _EUSART1_SetErrorHandler 1A10                          __end_of_I2C2_M_Restart 15D4  
                          _INTERRUPT_Initialize 1A28                                 ___aldiv@divisor 0009  
                               ___aldiv@counter 000D         EUSART1_SetErrorHandler@interruptHandler 0005  
                                      _LATBbits 0F8A                                        _LATCbits 0F8B  
                                  ?_I2C2_M_Poll 000D                                      _I2C1_DO_RX 0000  
                                    _I2C1_DO_TX 0000                                    ?_I2C2_M_Stop 0005  
                                      _PIE1bits 0F9D                           __end_of_I2C_Mem_Write 0A66  
                __end_of_FsScape_get_index_SRAM 0E86                                        i2u322_40 1880  
                                      i2u322_41 187C                                        i2u323_48 1886  
                                      i2u323_49 1898                                        i2u360_40 003C  
                                      i2u360_41 0038                                        _PIR1bits 0F9E  
                                      _PIR2bits 0FA1                                        _PIR3bits 0FA4  
                                      i2u294_40 18FE                                        i2u358_40 0020  
                                      i2u294_41 18FA                                        i2u358_41 001C  
                                      i2u359_40 002E                                        i2u359_41 002A  
                        I2C_Mem_Write@SlaveAddr 0017                                        _RCONbits 0FD0  
                     _I2C1_DO_SEND_RESTART_READ 0000                                       main@F6383 00F0  
                                     main@F6385 0200                                        _SSP1CON1 0FC6  
                                      _SSP1CON2 0FC5                                        _SSP2CON1 0F6C  
                                      _SSP2CON2 0F6B                                        _TMR1_ISR 185E  
                                      _SSP1STAT 0FC7                                        _SSP2STAT 0F6D  
        __end_of_FsScape_EEPROM_interface_style FE7F                  _FsScape_EEPROM_interface_style FE7E  
                                     _vfpfcnvrt 0050                                       _xtoa$3505 002E  
                             ??_TMR1_Initialize 0007                      __end_of_I2C2_M_ClearErrors 1A22  
                                  _myi_AT45dbxx 009A                           I2C2_M_WriteByte@cData 0007  
                                     main@temp2 00DD                                       main@valor 0056  
                                 _I2C1_DO_RESET 0000                                 ?_I2C2_M_Restart 0005  
                                    vfpfcnvrt@c 0043                             I2C_Mem_Read@Timeout 0012  
                                   _INTCON2bits 0FF1                                       copy_data0 1698  
                         ?_INTERRUPT_Initialize 0001                   FsScape_get_index_crc_SRAM@crc 001E  
                        fp__increment_interrupt 0000                                        __Hrparam 0000  
                             I2C2_M_WriteByte@t 0008                                      vfprintf@ap 004A  
                                      __Lrparam 0000                                      vfprintf@fp 0046  
                      ??_FsScape_set_index_SRAM 0020                                ?_SPI2_Initialize 0001  
                       ??_OSCILLATOR_Initialize 0005                                      ?_vfpfcnvrt 0035  
                      _TMR1_SetInterruptHandler 19F2                                ??_I2C_ModuleStop 0005  
                         _TMR1_InterruptHandler 00FB                       ??_EUSART1_SetErrorHandler 0007  
                   _EUSART1_DefaultErrorHandler 0000              __end_of_FsScape_get_index_crc_SRAM 0D98  
                    _FsScape_get_index_crc_SRAM 0CAA              __end_of_FsScape_set_index_crc_SRAM 1716  
                    _FsScape_set_index_crc_SRAM 16CE                                        __ptext10 1982  
                                      __ptext11 17A2                                        __ptext20 19CE  
                                      __ptext12 0E86                                        __ptext21 1A28  
                                      __ptext13 0B9E                                      _T1GCONbits 0FCC  
                                      __ptext30 1A22                                        __ptext22 1998  
                                      __ptext14 193E                                        __ptext31 110A  
                                      __ptext23 17E2                                        __ptext15 1964  
                                      __ptext40 077E                                        __ptext32 1822  
                                      __ptext24 19FC                                        __ptext16 18C6  
                                      __ptext41 128E                                        __ptext33 11D4  
                                      __ptext25 1A06                                        __ptext17 19F2  
                                      __ptext50 18F0                                        __ptext42 14F6  
                                      __ptext34 1A1A                                        __ptext26 1A10  
                                      __ptext18 19AC                                        __ptext51 0000  
                                      __ptext43 13D8                                        __ptext35 16CE  
                                      __ptext27 1A2C                                        __ptext19 189A  
                                      __ptext44 1566                                        __ptext36 1716  
                                      __ptext28 15D4                                        __ptext45 0F72  
                                      __ptext37 092C                                        __ptext29 1334  
                                      __ptext38 0CAA                                        __ptext47 185E  
                                      __ptext39 0D98                                        __ptext48 1A30  
                                      __ptext49 19BE                                    _SSP1CON1bits 0FC6  
                                  _SSP1CON2bits 0FC5                                    _SSP2CON1bits 0F6C  
                               ___almod@divisor 0009                                 ___almod@counter 000D  
                      _I2C1_CallbackReturnReset 0000                        __end_of_I2C2_M_WriteByte 1334  
                          __end_of_I2C_Mem_Read 092C  EUSART1_SetOverrunErrorHandler@interruptHandler 0005  
                                      isa$xinst 0000                                        int$flags 005B  
                                      _vfprintf 1634              __end_of_INTERRUPT_InterruptManager 004C  
                    _INTERRUPT_InterruptManager 0008                                       printf@fmt 004E  
                                  _SSP1STATbits 0FC7                               ??_TMR1_WriteTimer 0003  
                                      main@temp 00DC                     _EUSART1_FramingErrorHandler 00FD  
                                  _I2C1_DO_IDLE 0000                                    _I2C1_DO_RCEN 0000  
                               _I2C_ModuleStart 15D4                                      _INTCONbits 0FF2  
                            I2C_Mem_Read@retval 001C                          ??_INTERRUPT_Initialize 0005  
                                      intlevel2 0000                                    _I2C2_M_Start 13D8  
                              ___lldiv@dividend 0005                                   I2C2_M_Start@t 0007  
                       ?_PIN_MANAGER_Initialize 0001                            I2C2_M_Poll@SlaveAddr 0010  
        __end_of_EUSART1_SetOverrunErrorHandler 1A06                  _EUSART1_SetOverrunErrorHandler 19FC  
                                    _RCSTA1bits 0FAB                         _I2C1_CallbackReturnStop 0000  
                          _I2C1_DO_ADDRESS_NACK 0000                                        printf@ap 0054  
EUSART1_SetFramingErrorHandler@interruptHandler 0005                                     ??_vfpfcnvrt 003B  
                            _eusart1RxLastError 00AB                                ___lldiv@quotient 000D  
                                  I2C2_M_Stop@t 0007                                    ___aldiv@sign 000E  
                                   _timer_fract 00A7                  __end_of_PIN_MANAGER_Initialize 18C6  
                                  ___almod@sign 000E                                 _TMR1_Initialize 18C6  
                    __end_of_spi1_configuration FE7D  
